(dp0
S'METTS MARK'
p1
(dp2
S'to_messages'
p3
F-0.6094604774527387
sS'deferral_payments'
p4
F-0.32080504209563454
sS'expenses'
p5
F1.2639446591005512
sS'poi'
p6
I00
sS'long_term_incentive'
p7
F-0.45938601591090805
sS'from_poi_to_this_person'
p8
F-0.3822446641596952
sS'deferred_income'
p9
F0.3074450362375499
sS'restricted_stock_deferred'
p10
F0.19612391985943306
sS'shared_receipt_with_poi'
p11
F-0.46524807646793037
sS'loan_advances'
p12
F-0.08523703713119873
sS'from_messages'
p13
F-0.4098329776185778
sS'other'
p14
F-0.23855269808528773
sS'to_poi_ratio'
p15
F0.40712774720520817
sS'director_fees'
p16
F-0.32537032903650676
sS'bonus'
p17
F0.005805211958933095
sS'total_stock_value'
p18
F-0.363099359896827
sS'from_this_person_to_poi'
p19
F-0.5151126496477927
sS'from_poi_ratio'
p20
F-0.580448232273544
sS'restricted_stock'
p21
F-0.1316833611730384
sS'salary'
p22
F1.0475161171512994
sS'bonus_to_total'
p23
F0.38656623817876734
sS'total_payments'
p24
F-0.10039336243161241
sS'shared_poi_ratio'
p25
F1.2773323173660454
sS'exercised_stock_options'
p26
F-0.4181111581341037
sS'bonus_to_salary'
p27
F-0.0967032833711732
ssS'ELLIOTT STEVEN'
p28
(dp29
g3
F0.011648768962155498
sg4
F-0.32080504209563454
sg5
F0.9229766292766143
sg6
I00
sg7
F-0.45938601591090805
sg8
F0.01002644165433063
sg9
F-0.43474213039133813
sg10
F0.19612391985943306
sg11
F-0.04507849739165334
sg12
F-0.08523703713119873
sg13
F0.03902402694493509
sg14
F-0.2267201904593959
sg15
F-0.16149002258964681
sg16
F-0.32537032903650676
sg17
F-0.23145182499384492
sg18
F0.6168320003245691
sg19
F-0.021554599284467433
sg20
F-0.4679569880521873
sg21
F0.4764703353537463
sg22
F-0.0233499826141533
sg23
F2.2418823325558708
sg24
F-0.19762960197226603
sg25
F-0.23087269064614907
sg26
F0.5785847975350085
sg27
F0.02788852256009873
ssS'CORDES WILLIAM R'
p30
(dp31
g3
F-0.6317148315275989
sg4
F-0.32080504209563454
sg5
F-0.7779010413101575
sg6
I00
sg7
F-0.45938601591090805
sg8
F-0.9180295891739745
sg9
F0.3074450362375499
sg10
F0.19612391985943306
sg11
F-1.224204953858223
sg12
F-0.08523703713119873
sg13
F-0.4217601420148555
sg14
F-0.24038752236735278
sg15
F-0.6703909072770105
sg16
F-0.32537032903650676
sg17
F-0.5636116767277342
sg18
F-0.29023206988346406
sg19
F-0.5291032715478554
sg20
F-0.7767219540731074
sg21
F-0.23211853696426282
sg22
F-0.9628303028654596
sg23
F-0.5769897398469608
sg24
F-0.22184709918641785
sg25
F-2.2189415566271014
sg26
F-0.2852582834277618
sg27
F-0.5985927755639423
ssS'HANNON KEVIN P'
p32
(dp33
g3
F-0.4862852153639781
sg4
F-0.32080504209563454
sg5
F-0.040858381300187964
sg6
I01
sg7
F1.989023183682376
sg8
F-0.4970557195198979
sg9
F-5.4655475908023625
sg10
F0.19612391985943306
sg11
F-0.07280608862481325
sg12
F-0.08523703713119873
sg13
F-0.4077281839015876
sg14
F-0.2284189846653768
sg15
F-0.11472300042748812
sg16
F-0.32537032903650676
sg17
F0.859930544988934
sg18
F0.5705714191619617
sg19
F-0.23530021164653742
sg20
F2.9586123139248324
sg21
F0.003762894154117658
sg22
F0.3742917775886214
sg23
F8.283363117961327
sg24
F-0.18882711793349177
sg25
F1.8081422528326903
sg26
F0.7105831012455022
sg27
F1.287868749944484
ssS'MORDAUNT KRISTINA M'
p34
(dp35
g3
F0.011648768962155498
sg4
F-0.32080504209563454
sg5
F-0.019660203793511504
sg6
I00
sg7
F-0.45938601591090805
sg8
F0.01002644165433063
sg9
F0.3074450362375499
sg10
F0.19612391985943306
sg11
F-0.04507849739165334
sg12
F-0.08523703713119873
sg13
F0.03902402694493509
sg14
F-0.23889962750413796
sg15
F-0.16149002258964681
sg16
F-0.32537032903650676
sg17
F-0.25517752868912275
sg18
F-0.4236531693240948
sg19
F-0.021554599284467433
sg20
F-0.4679569880521873
sg21
F-0.3219899944666379
sg22
F0.5050949881816393
sg23
F0.30475391134508334
sg24
F-0.14995558999273204
sg25
F-0.23087269064614907
sg26
F-0.4181111581341037
sg27
F-0.2262806663590473
ssS'MEYER ROCKFORD G'
p36
(dp37
g3
F-0.9070477703142402
sg4
F3.086690830974035
sg5
F-0.7779010413101575
sg6
I00
sg7
F-0.45938601591090805
sg8
F-1.1093813481076455
sg9
F0.3074450362375499
sg10
F0.19612391985943306
sg11
F-1.2666311147061275
sg12
F-0.08523703713119873
sg13
F-0.41053457552424116
sg14
F-0.24038752236735278
sg15
F-1.0852165699843621
sg16
F-0.32537032903650676
sg17
F-0.5636116767277342
sg18
F-0.3034687680329288
sg19
F-0.5291032715478554
sg20
F-0.7767219540731074
sg21
F-0.1936839272547275
sg22
F-0.9628303028654596
sg23
F-0.5769897398469608
sg24
F-0.010443475506549308
sg25
F-2.1356649940975645
sg26
F-0.31753367514575065
sg27
F-0.5985927755639423
ssS'MCMAHON JEFFREY'
p38
(dp39
g3
F0.1916962692422253
sg4
F-0.32080504209563454
sg5
F2.1908831482561313
sg6
I00
sg7
F0.5927444354266452
sg8
F0.000458853707647073
sg9
F0.3074450362375499
sg10
F0.19612391985943306
sg11
F1.3331497416960238
sg12
F-0.08523703713119873
sg13
F-0.3965026174109733
sg14
F0.07317023898028237
sg15
F-0.3046749663373062
sg16
F-0.32537032903650676
sg17
F1.9038615075811571
sg18
F-0.18977808707383517
sg19
F-0.1653471021462236
sg20
F2.3064110925283665
sg21
F-0.14495547896001923
sg22
F1.0731271659480837
sg23
F0.5044273112703351
sg24
F0.2470922928133951
sg25
F1.6128089286873821
sg26
F-0.19309505361460447
sg27
F1.548903406007841
ssS'HORTON STANLEY C'
p40
(dp41
g3
F0.18910855365212528
sg4
F5.453269259941926
sg5
F-0.7779010413101575
sg6
I00
sg7
F-0.45938601591090805
sg8
F-0.2674336087994925
sg9
F0.3074450362375499
sg10
F0.19612391985943306
sg11
F-0.026844414372916642
sg12
F-0.08523703713119873
sg13
F0.3226352358940057
sg14
F-0.24038752236735278
sg15
F-0.4918216985983905
sg16
F-0.32537032903650676
sg17
F-0.5636116767277342
sg18
F0.7097669300754152
sg19
F-0.319243943046914
sg20
F-0.6971515263165277
sg21
F0.606703970336859
sg22
F-0.9628303028654596
sg23
F-0.5769897398469608
sg24
F0.13638084189334837
sg25
F-0.5407372818798997
sg26
F0.6438495237800623
sg27
F-0.5985927755639423
ssS'PIPER GREGORY F'
p42
(dp43
g3
F-0.38639939358611763
sg4
F1.7625932668892235
sg5
F0.15440736410860503
sg6
I00
sg7
F-0.45938601591090805
sg8
F0.057864381387748416
sg9
F0.24570923766734226
sg10
F-1.2880494557682651
sg11
F-0.4181078977480364
sg12
F-0.08523703713119873
sg13
F-0.2744245818255427
sg14
F-0.23956712392399265
sg15
F0.47637754833659224
sg16
F-0.32537032903650676
sg17
F-0.1840004176032893
sg18
F-0.31562336707354255
sg19
F0.14244657965515714
sg20
F0.4539673285619926
sg21
F-0.22038382378137153
sg22
F0.12036867104162068
sg23
F-0.18445111260293082
sg24
F-0.023093879364812442
sg25
F0.08602703313352948
sg26
F-0.2387001631578888
sg27
F0.02238992978606896
ssS'HUMPHREY GENE E'
p44
(dp45
g3
F-0.9608722545883205
sg4
F5.144725956364118
sg5
F-0.6697665178491338
sg6
I00
sg7
F-0.45938601591090805
sg8
F-0.9180295891739745
sg9
F0.3074450362375499
sg10
F0.19612391985943306
sg11
F-1.1523161813103846
sg12
F-0.08523703713119873
sg13
F-0.4182521524865385
sg14
F-0.24038752236735278
sg15
F1.390774104300143
sg16
F-0.32537032903650676
sg17
F-0.5636116767277342
sg18
F-0.09008908352721784
sg19
F-0.29126269924678844
sg20
F4.9152159781142295
sg21
F-0.42736942707633974
sg22
F-0.24437992885026275
sg23
F-0.5769897398469608
sg24
F0.1327622576833264
sg25
F1.5406586075055992
sg26
F0.04713742833156576
sg27
F-0.5985927755639423
ssS'UMANOFF ADAM S'
p46
(dp47
g3
F-0.9696704875946606
sg4
F-0.32080504209563454
sg5
F0.3723436834188181
sg6
I00
sg7
F-0.45938601591090805
sg8
F-0.8797592373872403
sg9
F0.3074450362375499
sg10
F0.19612391985943306
sg11
F-1.244239529814178
sg12
F-0.08523703713119873
sg13
F-0.41755055458087514
sg14
F-0.24038752236735278
sg15
F2.3410191738904125
sg16
F-0.32537032903650676
sg17
F0.18493427485828048
sg18
F-0.4571839294944819
sg19
F-0.5291032715478554
sg20
F-0.7767219540731074
sg21
F-0.42736942707633974
sg22
F0.6232355686399383
sg23
F0.6127809127992601
sg24
F-0.09254287853128844
sg25
F-0.9267143421483748
sg26
F-0.4181111581341037
sg27
F0.23767604663938746
ssS'BLACHMAN JEREMY M'
p48
(dp49
g3
F0.2538014434046256
sg4
F-0.32080504209563454
sg5
F1.0454453646982302
sg6
I00
sg7
F0.8001037512610468
sg8
F-0.6310019507734678
sg9
F0.3074450362375499
sg10
F0.19612391985943306
sg11
F1.448643179559764
sg12
F-0.08523703713119873
sg13
F-0.4203569462035287
sg14
F-0.24010069926119088
sg15
F-0.7650884828041432
sg16
F-0.32537032903650676
sg17
F0.2430622489117111
sg18
F-0.3037130403685426
sg19
F-0.5011220277477298
sg20
F0.036412036239369325
sg21
F-0.33182948501135173
sg22
F0.40316191478379465
sg23
F0.14239116103512645
sg24
F0.008613455776272302
sg25
F1.585180322934442
sg26
F-0.2621335066803419
sg27
F0.44780896720317337
ssS'SUNDE MARTIN'
p50
(dp51
g3
F0.34281885970406606
sg4
F-0.32080504209563454
sg5
F-0.7779010413101575
sg6
I00
sg7
F0.26203579974490365
sg8
F-0.4013798400530623
sg9
F0.3074450362375499
sg10
F0.19612391985943306
sg11
F1.7303057474111303
sg12
F-0.08523703713119873
sg13
F-0.40351859646760724
sg14
F-0.12320973853308201
sg15
F-0.6422134784312297
sg16
F-0.32537032903650676
sg17
F0.1007080267400443
sg18
F-0.34478970908161466
sg19
F-0.3472251868470395
sg20
F1.170519970096245
sg21
F-0.07414035873634264
sg22
F0.4522955577544493
sg23
F0.19557064720555886
sg24
F-0.045120392240142304
sg25
F1.7138668721015242
sg26
F-0.4181111581341037
sg27
F0.23322984456003878
ssS'GIBBS DANA R'
p52
(dp53
g3
F-0.9396529867495004
sg4
F0.609522505608022
sg5
F-0.7779010413101575
sg6
I00
sg7
F0.24002146505399136
sg8
F-1.1093813481076455
sg9
F0.3074450362375499
sg10
F0.19612391985943306
sg11
F-1.2654526102381303
sg12
F-0.08523703713119873
sg13
F-0.4217601420148555
sg14
F-0.24038752236735278
sg15
F-1.0852165699843621
sg16
F-0.32537032903650676
sg17
F-0.5636116767277342
sg18
F-0.10046028546318626
sg19
F-0.5291032715478554
sg20
F-0.7767219540731074
sg21
F-0.42736942707633974
sg22
F-0.9628303028654596
sg23
F-0.5769897398469608
sg24
F-0.11129452465617135
sg25
F-1.9539444822349812
sg26
F0.033993176665636324
sg27
F-0.5985927755639423
ssS'LOWRY CHARLES P'
p54
(dp55
g3
F0.011648768962155498
sg4
F-0.32080504209563454
sg5
F-0.7779010413101575
sg6
I00
sg7
F-0.45938601591090805
sg8
F0.01002644165433063
sg9
F0.3074450362375499
sg10
F-0.36081526131501135
sg11
F-0.04507849739165334
sg12
F-0.08523703713119873
sg13
F0.03902402694493509
sg14
F-0.24038752236735278
sg15
F-0.16149002258964681
sg16
F-0.32537032903650676
sg17
F-0.5636116767277342
sg18
F-0.39732916670507645
sg19
F-0.021554599284467433
sg20
F-0.4679569880521873
sg21
F-0.3496976440440888
sg22
F-0.9628303028654596
sg23
F-0.5769897398469608
sg24
F-0.22184709918641785
sg25
F-0.23087269064614907
sg26
F-0.34225244181888703
sg27
F-0.5985927755639423
ssS'COLWELL WESLEY'
p56
(dp57
g3
F-0.11727697221571624
sg4
F-0.26990168387423985
sg5
F-0.4203252462690389
sg6
I01
sg7
F-0.45938601591090805
sg8
F3.483060866300462
sg9
F0.040628889667446724
sg10
F0.19612391985943306
sg11
F0.04150884477092959
sg12
F-0.08523703713119873
sg13
F-0.40211540065628043
sg14
F-0.13310302670223959
sg15
F3.241429249925763
sg16
F-0.32537032903650676
sg17
F0.5752221006456003
sg18
F-0.3448987391300321
sg19
F-0.375206430647165
sg20
F0.7885609772784105
sg21
F-0.07448301498932512
sg22
F0.6229772597786832
sg23
F0.7960217977297661
sg24
F-0.0513787951688107
sg25
F0.28224681475214786
sg26
F-0.4181111581341037
sg27
F0.6739093459310818
ssS'MULLER MARK S'
p58
(dp59
g3
F-0.9567319096441604
sg4
F1.2332573383973342
sg5
F-0.7779010413101575
sg6
I00
sg7
F2.153360744817493
sg8
F-0.8797592373872403
sg9
F-1.0242094554667454
sg10
F0.19612391985943306
sg11
F-1.1582087036503714
sg12
F-0.08523703713119873
sg13
F-0.4189537503922019
sg14
F-0.2393889139793553
sg15
F1.7111964268546085
sg16
F-0.32537032903650676
sg17
F0.48031928586448913
sg18
F-0.22933878784231831
sg19
F-0.5291032715478554
sg20
F-0.7767219540731074
sg21
F-0.24516120646384834
sg22
F0.4202432752259417
sg23
F0.008799415723777957
sg24
F0.14441159158944283
sg25
F1.1379468503002037
sg26
F-0.20282367081370323
sg27
F0.7388498303369472
ssS'JACKSON CHARLENE R'
p60
(dp61
g3
F-0.8935916492457202
sg4
F-0.32080504209563454
sg5
F-0.557452986973617
sg6
I00
sg7
F-0.45938601591090805
sg8
F-0.6310019507734678
sg9
F0.3074450362375499
sg10
F0.19612391985943306
sg11
F-1.1546731902463794
sg12
F-0.08523703713119873
sg13
F-0.39088983416566614
sg14
F-0.23781982286917555
sg15
F1.9857796151747142
sg16
F-0.32537032903650676
sg17
F-0.3263546397749561
sg18
F-0.34047755458557644
sg19
F-0.2632814554466629
sg20
F1.154471272919025
sg21
F-0.15411774328202435
sg22
F0.6230651947101743
sg23
F0.19645759974023913
sg24
F-0.1588027973348986
sg25
F-0.5562945029070238
sg26
F-0.380393659397002
sg27
F-0.33350286647257443
ssS'WESTFAHL RICHARD K'
p62
(dp63
g3
F0.011648768962155498
sg4
F-0.32080504209563454
sg5
F0.3452342674450092
sg6
I00
sg7
F-0.07147251300152588
sg8
F0.01002644165433063
sg9
F0.287442437474815
sg10
F0.19612391985943306
sg11
F-0.04507849739165334
sg12
F-0.08523703713119873
sg13
F0.03902402694493509
sg14
F0.18260274445146824
sg15
F-0.16149002258964681
sg16
F-0.32537032903650676
sg17
F-0.5636116767277342
sg18
F-0.39528284315623863
sg19
F-0.021554599284467433
sg20
F-0.4679569880521873
sg21
F-0.2328286137127
sg22
F-0.6124975358048991
sg23
F-0.5769897398469608
sg24
F-0.13467268785422942
sg25
F-0.23087269064614907
sg26
F-0.4181111581341037
sg27
F-0.5985927755639423
ssS'WALTERS GARETH W'
p64
(dp65
g3
F0.011648768962155498
sg4
F-0.2219389579006947
sg5
F-0.04635821489231853
sg6
I00
sg7
F-0.45938601591090805
sg8
F0.01002644165433063
sg9
F0.3074450362375499
sg10
F0.19612391985943306
sg11
F-0.04507849739165334
sg12
F-0.08523703713119873
sg13
F0.03902402694493509
sg14
F-0.24038752236735278
sg15
F-0.16149002258964681
sg16
F-0.32537032903650676
sg17
F-0.5636116767277342
sg18
F-0.29149540330583495
sg19
F-0.021554599284467433
sg20
F-0.4679569880521873
sg21
F-0.42736942707633974
sg22
F-0.9628303028654596
sg23
F-0.5769897398469608
sg24
F-0.2118489816684629
sg25
F-0.23087269064614907
sg26
F-0.20812086965775098
sg27
F-0.5985927755639423
ssS'WALLS JR ROBERT H'
p66
(dp67
g3
F-0.6798463415034591
sg4
F-0.32080504209563454
sg5
F0.32501046990544247
sg6
I00
sg7
F0.3593961216807768
sg8
F-0.7840833579204046
sg9
F0.3074450362375499
sg10
F0.19612391985943306
sg11
F-1.0391797523826392
sg12
F-0.08523703713119873
sg13
F-0.32774602265596064
sg14
F-0.2403854133739251
sg15
F-0.28227235131922307
sg16
F-0.32537032903650676
sg17
F0.2430622489117111
sg18
F0.49144133381582944
sg19
F-0.5291032715478554
sg20
F-0.7767219540731074
sg21
F0.3572289916720628
sg22
F0.999717985952666
sg23
F0.22879741446249346
sg24
F-0.016099314848847877
sg25
F-1.1422758878296428
sg26
F0.4677534816413079
sg27
F0.12973408665827982
ssS'KITCHEN LOUISE'
p68
(dp69
g3
F3.271077821461241
sg4
F-0.32080504209563454
sg5
F-0.6528772650858982
sg6
I00
sg7
F-0.45938601591090805
sg8
F3.6935478011275005
sg9
F0.3074450362375499
sg10
F0.19612391985943306
sg11
F3.0313746800802033
sg12
F-0.08523703713119873
sg13
F0.7821818641035289
sg14
F-0.1413439185208248
sg15
F-0.12737637271268748
sg16
F-0.32537032903650676
sg17
F2.378375581486713
sg18
F-0.36919716285544246
sg19
F2.1850773770643204
sg20
F-0.1376965149270753
sg21
F-0.19180538257576601
sg22
F0.5289968017475652
sg23
F0.9459015494943476
sg24
F0.17518843037989762
sg25
F-0.6078435045998868
sg26
F-0.4015940718842742
sg27
F2.895793846425572
ssS'CHAN RONNIE'
p70
(dp71
g3
F0.011648768962155498
sg4
F-0.32080504209563454
sg5
F-0.7779010413101575
sg6
I00
sg7
F-0.45938601591090805
sg8
F0.01002644165433063
sg9
F0.12448793288773473
sg10
F0.07849286809855398
sg11
F-0.04507849739165334
sg12
F-0.08523703713119873
sg13
F0.03902402694493509
sg14
F-0.24038752236735278
sg15
F-0.16149002258964681
sg16
F2.8921762304232064
sg17
F-0.5636116767277342
sg18
F-0.4571839294944819
sg19
F-0.021554599284467433
sg20
F-0.4679569880521873
sg21
F-0.4109643799202756
sg22
F-0.9628303028654596
sg23
F-0.5769897398469608
sg24
F-0.22184709918641785
sg25
F-0.23087269064614907
sg26
F-0.4181111581341037
sg27
F-0.5985927755639423
ssS'BELFER ROBERT'
p72
(dp73
g3
F0.011648768962155498
sg4
F-0.32080504209563454
sg5
F-0.706771303711146
sg6
I00
sg7
F-0.45938601591090805
sg8
F0.01002644165433063
sg9
F0.11760555723937151
sg10
F0.0363363054018717
sg11
F-0.04507849739165334
sg12
F-0.08523703713119873
sg13
F0.03902402694493509
sg14
F-0.24038752236735278
sg15
F-0.16149002258964681
sg16
F3.01321205621435
sg17
F-0.5636116767277342
sg18
F-0.4571839294944819
sg19
F-0.021554599284467433
sg20
F-0.4679569880521873
sg21
F-0.4050851466002974
sg22
F-0.9628303028654596
sg23
F-0.5769897398469608
sg24
F-0.2214713548088125
sg25
F-0.23087269064614907
sg26
F-0.4181111581341037
sg27
F-0.5985927755639423
ssS'SHANKMAN JEFFREY A'
p74
(dp75
g3
F0.6398886094475476
sg4
F-0.32080504209563454
sg5
F3.097511228319512
sg6
I00
sg7
F0.38009616773342564
sg8
F0.6893251858688633
sg9
F0.3074450362375499
sg10
F0.19612391985943306
sg11
F0.7462545166333442
sg12
F-0.08523703713119873
sg13
F1.4508046682007436
sg14
F-0.23913161678118067
sg15
F-0.16031375120164978
sg16
F-0.32537032903650676
sg17
F1.33444461889449
sg18
F-0.12397732717493827
sg19
F0.6321183461573538
sg20
F-0.6005075384179231
sg21
F-0.10890278506214533
sg22
F0.7085379481195279
sg23
F0.5453422662520522
sg24
F0.1257252575009717
sg25
F-0.18810766917684799
sg26
F-0.12423941719167071
sg27
F1.4136742064514316
ssS'WODRASKA JOHN'
p76
(dp77
g3
F0.011648768962155498
sg4
F-0.32080504209563454
sg5
F-0.7779010413101575
sg6
I00
sg7
F-0.45938601591090805
sg8
F0.01002644165433063
sg9
F0.3074450362375499
sg10
F0.19612391985943306
sg11
F-0.04507849739165334
sg12
F-0.08523703713119873
sg13
F0.03902402694493509
sg14
F-0.04047287186922861
sg15
F-0.16149002258964681
sg16
F-0.32537032903650676
sg17
F-0.5636116767277342
sg18
F-0.4571839294944819
sg19
F-0.021554599284467433
sg20
F-0.4679569880521873
sg21
F-0.42736942707633974
sg22
F-0.9628303028654596
sg23
F-0.5769897398469608
sg24
F-0.2001622448973611
sg25
F-0.23087269064614907
sg26
F-0.4181111581341037
sg27
F-0.5985927755639423
ssS'BERGSIEKER RICHARD P'
p78
(dp79
g3
F-0.8288987594932198
sg4
F-0.32080504209563454
sg5
F0.5034086154391579
sg6
I00
sg7
F-0.18645914143281891
sg8
F-1.0328406445341771
sg9
F-0.5923255667921284
sg10
F0.19612391985943306
sg11
F-1.0179666719586868
sg12
F-0.08523703713119873
sg13
F-0.38878504044867596
sg14
F0.21021579539983323
sg15
F-0.7542225163985483
sg16
F-0.32537032903650676
sg17
F-0.3263546397749561
sg18
F-0.3511692534042823
sg19
F-0.5291032715478554
sg20
F-0.7767219540731074
sg21
F-0.0941897926774461
sg22
F0.06997645936399959
sg23
F0.11187519341576091
sg24
F-0.15106189124697825
sg25
F0.12566442915480944
sg26
F-0.4181111581341037
sg27
F-0.19154190345962813
ssS'URQUHART JOHN A'
p80
(dp81
g3
F0.011648768962155498
sg4
F-0.32080504209563454
sg5
F4.173161753344197
sg6
I00
sg7
F-0.45938601591090805
sg8
F0.01002644165433063
sg9
F0.23953621343806492
sg10
F0.19612391985943306
sg11
F-0.04507849739165334
sg12
F-0.08523703713119873
sg13
F0.03902402694493509
sg14
F-0.24038752236735278
sg15
F-0.16149002258964681
sg16
F0.86889759035479
sg17
F-0.5636116767277342
sg18
F-0.4571839294944819
sg19
F-0.021554599284467433
sg20
F-0.4679569880521873
sg21
F-0.42736942707633974
sg22
F-0.9628303028654596
sg23
F-0.5769897398469608
sg24
F-0.19569300286808464
sg25
F-0.23087269064614907
sg26
F-0.4181111581341037
sg27
F-0.5985927755639423
ssS'BIBI PHILIPPE A'
p82
(dp83
g3
F-0.19542598303673664
sg4
F-0.32080504209563454
sg5
F0.057012673173946475
sg6
I00
sg7
F0.10042977859069306
sg8
F-0.669272302560202
sg9
F0.3074450362375499
sg10
F0.19612391985943306
sg11
F0.28192375624238875
sg12
F-0.08523703713119873
sg13
F-0.40211540065628043
sg14
F0.2084990747497172
sg15
F-0.6316187762635418
sg16
F-0.32537032903650676
sg17
F0.3854164710833779
sg18
F-0.16067751687963144
sg19
F-0.4171782963473533
sg20
F0.3616656323643601
sg21
F-0.23628954294636378
sg22
F0.2112384308712408
sg23
F0.2558008859261013
sg24
F0.012360376422115661
sg25
F1.1076836208075
sg26
F-0.11938142667007777
sg27
F0.8337080129689902
ssS'PIRO JIM'
p84
(dp85
g3
F-0.9971002728497207
sg4
F-0.32080504209563454
sg5
F-0.7779010413101575
sg6
I00
sg7
F-0.45938601591090805
sg8
F-1.1093813481076455
sg9
F0.3074450362375499
sg10
F0.19612391985943306
sg11
F-1.2890226995980771
sg12
F-0.08523703713119873
sg13
F-0.4189537503922019
sg14
F-0.24038752236735278
sg15
F-1.0852165699843621
sg16
F-0.32537032903650676
sg17
F-0.5636116767277342
sg18
F-0.44957691266507327
sg19
F-0.5151126496477927
sg20
F-0.4209758333113988
sg21
F-0.40346233062931397
sg22
F-0.9628303028654596
sg23
F-0.5769897398469608
sg24
F-0.22184709918641785
sg25
F-2.325471956426221
sg26
F-0.4181111581341037
sg27
F-0.5985927755639423
ssS'RIEKER PAULA H'
p86
(dp87
g3
F-0.33982051296431737
sg4
F0.07498746555567158
sg5
F-0.057487799405527625
sg6
I01
sg7
F-0.45938601591090805
sg8
F-0.4396501918397966
sg9
F0.12223578843444903
sg10
F0.19612391985943306
sg11
F0.19000040773859553
sg12
F-0.08523703713119873
sg13
F-0.3726482886184179
sg14
F-0.23833125377538333
sg15
F-0.24994260757513143
sg16
F-0.32537032903650676
sg17
F0.1007080267400443
sg18
F-0.14860525321481377
sg19
F0.14244657965515714
sg20
F2.5551441525731384
sg21
F-0.2840152921173003
sg22
F0.40676175104171175
sg23
F0.5090364443573691
sg24
F-0.09613000773253068
sg25
F1.618167881354116
sg26
F-0.08483499164020314
sg27
F0.2608848315293012
ssS'WHALEY DAVID A'
p88
(dp89
g3
F0.011648768962155498
sg4
F-0.32080504209563454
sg5
F-0.7779010413101575
sg6
I00
sg7
F-0.45938601591090805
sg8
F0.01002644165433063
sg9
F0.3074450362375499
sg10
F0.19612391985943306
sg11
F-0.04507849739165334
sg12
F-0.08523703713119873
sg13
F0.03902402694493509
sg14
F-0.24038752236735278
sg15
F-0.16149002258964681
sg16
F-0.32537032903650676
sg17
F-0.5636116767277342
sg18
F-0.4413089614713642
sg19
F-0.021554599284467433
sg20
F-0.4679569880521873
sg21
F-0.42736942707633974
sg22
F-0.9628303028654596
sg23
F-0.5769897398469608
sg24
F-0.22184709918641785
sg25
F-0.23087269064614907
sg26
F-0.3979915445953131
sg27
F-0.5985927755639423
ssS'BECK SALLY W'
p90
(dp91
g3
F2.758710134621438
sg4
F-0.32080504209563454
sg5
F0.026980117298808316
sg6
I00
sg7
F-0.45938601591090805
sg8
F1.646083980537219
sg9
F0.3074450362375499
sg10
F0.19612391985943306
sg11
F1.817515078042934
sg12
F-0.08523703713119873
sg13
F2.6168603874133045
sg14
F-0.23979067722732472
sg15
F-0.4613278466978003
sg16
F-0.32537032903650676
sg17
F0.1007080267400443
sg18
F-0.43691736620258526
sg19
F4.871276781876371
sg20
F-0.27083016456716397
sg21
F-0.3636763008305822
sg22
F0.3085439284993662
sg23
F0.6547621899030454
sg24
F-0.11100330846579595
sg25
F-0.9646014448939481
sg26
F-0.4181111581341037
sg27
F0.32728229107351664
ssS'HAUG DAVID L'
p92
(dp93
g3
F-0.7305655670694193
sg4
F-0.32080504209563454
sg5
F-0.7676159194351102
sg6
I00
sg7
F-0.45938601591090805
sg8
F-1.0328406445341771
sg9
F0.3074450362375499
sg10
F0.19612391985943306
sg11
F-0.737482608575318
sg12
F-0.08523703713119873
sg13
F-0.4168489566752117
sg14
F-0.24038752236735278
sg15
F-0.8639762165404412
sg16
F-0.32537032903650676
sg17
F-0.5636116767277342
sg18
F-0.10061723727329752
sg19
F-0.4311689182474161
sg20
F1.320307810416964
sg21
F0.6932373090325241
sg22
F-0.9628303028654596
sg23
F-0.5769897398469608
sg24
F-0.22179276780761648
sg25
F1.0664082729987532
sg26
F-0.4181111581341037
sg27
F-0.5985927755639423
ssS'ECHOLS JOHN B'
p94
(dp95
g3
F0.011648768962155498
sg4
F-0.32080504209563454
sg5
F-0.31171435926853924
sg6
I00
sg7
F2.92441361229934
sg8
F0.01002644165433063
sg9
F0.3074450362375499
sg10
F0.19612391985943306
sg11
F-0.04507849739165334
sg12
F-0.08523703713119873
sg13
F0.03902402694493509
sg14
F-0.18368196158111863
sg15
F-0.16149002258964681
sg16
F-0.32537032903650676
sg17
F-0.37380604716551175
sg18
F-0.294934834980691
sg19
F-0.021554599284467433
sg20
F-0.4679569880521873
sg21
F-0.22142038421627872
sg22
F0.03877604648431205
sg23
F-0.45031729954642186
sg24
F0.08610590102420476
sg25
F-0.23087269064614907
sg26
F-0.2955327010387093
sg27
F-0.26280824819655474
ssS'MENDELSOHN JOHN'
p96
(dp97
g3
F0.011648768962155498
sg4
F-0.32080504209563454
sg5
F-0.7746964138627743
sg6
I00
sg7
F-0.45938601591090805
sg8
F0.01002644165433063
sg9
F0.11529044164183275
sg10
F0.19612391985943306
sg11
F-0.04507849739165334
sg12
F-0.08523703713119873
sg13
F0.03902402694493509
sg14
F-0.24038752236735278
sg15
F-0.16149002258964681
sg16
F3.0539264755466773
sg17
F-0.5636116767277342
sg18
F-0.4571839294944819
sg19
F-0.021554599284467433
sg20
F-0.4679569880521873
sg21
F-0.42736942707633974
sg22
F-0.9628303028654596
sg23
F-0.5769897398469608
sg24
F-0.22183017067260183
sg25
F-0.23087269064614907
sg26
F-0.4181111581341037
sg27
F-0.5985927755639423
ssS'HICKERSON GARY J'
p98
(dp99
g3
F-0.3439608579084774
sg4
F-0.32080504209563454
sg5
F1.3624653002194256
sg6
I00
sg7
F-0.3545714970094003
sg8
F-0.343974312372961
sg9
F0.3074450362375499
sg10
F0.19612391985943306
sg11
F-0.23190419180445532
sg12
F-0.08523703713119873
sg13
F-0.4112361734299046
sg14
F-0.23834601672937694
sg15
F-0.12483230844370556
sg16
F-0.32537032903650676
sg17
F1.0497361745511564
sg18
F-0.38625071675592226
sg19
F-0.5151126496477927
sg20
F-0.565909438066169
sg21
F-0.2044427271271333
sg22
F0.20114240154941837
sg23
F0.8154942666827475
sg24
F0.016272578841365324
sg25
F0.44916072925086514
sg26
F-0.4181111581341037
sg27
F1.8574384212724744
ssS'CLINE KENNETH W'
p100
(dp101
g3
F0.011648768962155498
sg4
F-0.32080504209563454
sg5
F-0.7779010413101575
sg6
I00
sg7
F-0.45938601591090805
sg8
F0.01002644165433063
sg9
F0.3074450362375499
sg10
F-1.5164044494731337
sg11
F-0.04507849739165334
sg12
F-0.08523703713119873
sg13
F0.03902402694493509
sg14
F-0.24038752236735278
sg15
F-0.16149002258964681
sg16
F-0.32537032903650676
sg17
F-0.5636116767277342
sg18
F-0.4267072971700302
sg19
F-0.021554599284467433
sg20
F-0.4679569880521873
sg21
F-0.0927559935775769
sg22
F-0.9628303028654596
sg23
F-0.5769897398469608
sg24
F-0.22184709918641785
sg25
F-0.23087269064614907
sg26
F-0.4181111581341037
sg27
F-0.5985927755639423
ssS'RICE KENNETH D'
p102
(dp103
g3
F-0.5587412518867785
sg4
F-0.32080504209563454
sg5
F0.23870205770767702
sg6
I01
sg7
F1.989023183682376
sg8
F-0.3057039605862268
sg9
F-6.183001914479624
sg10
F0.19612391985943306
sg11
F-0.2743303526523599
sg12
F-0.08523703713119873
sg13
F-0.41755055458087514
sg14
F-0.056020371417945226
sg15
F0.38560396757956056
sg16
F-0.32537032903650676
sg17
F1.097187581941712
sg18
F3.1679106407448256
sg19
F-0.4731407839476044
sg20
F0.48815314196852305
sg21
F0.9616336851241807
sg22
F1.3489570623028058
sg23
F5.33159049507522
sg24
F-0.16407854578928774
sg25
F1.650784659481548
sg26
F3.616119188096478
sg27
F0.6743764850630808
ssS'HAYES ROBERT E'
p104
(dp105
g3
F-0.7662760422127995
sg4
F-0.3061276920485312
sg5
F-0.7779010413101575
sg6
I00
sg7
F-0.45938601591090805
sg8
F-0.8032185338137717
sg9
F0.3074450362375499
sg10
F0.19612391985943306
sg11
F-1.2336329896022018
sg12
F-0.08523703713119873
sg13
F-0.4217601420148555
sg14
F-0.24038752236735278
sg15
F-0.07909972456081724
sg16
F-0.32537032903650676
sg17
F-0.5636116767277342
sg18
F-0.4328342069704798
sg19
F-0.5291032715478554
sg20
F-0.7767219540731074
sg21
F-0.35084387469565853
sg22
F-0.9628303028654596
sg23
F-0.5769897398469608
sg24
F-0.22093650527770672
sg25
F-2.116383016972114
sg26
F-0.4181111581341037
sg27
F-0.5985927755639423
ssS'KOPPER MICHAEL J'
p106
(dp107
g3
F0.2238578772906113
sg4
F-0.32080504209563454
sg5
F1.7800412483463466
sg6
I01
sg7
F0.45315274896334695
sg8
F0.7617654946080389
sg9
F0.3074450362375499
sg10
F0.19612391985943306
sg11
F0.8087152534372036
sg12
F-0.08523703713119873
sg13
F-0.21944937450320393
sg14
F0.7165703544272368
sg15
F0.19691344726215784
sg16
F-0.32537032903650676
sg17
F0.19561084152115552
sg18
F-0.2987796718945742
sg19
F0.40427107521347444
sg20
F0.4875515366909765
sg21
F0.07045855845145174
sg22
F0.2699349976415531
sg23
F-0.06271437479589674
sg24
F0.0815635689927092
sg25
F0.6950074527460511
sg26
F-0.4181111581341037
sg27
F0.4926900971329577
ssS'LEFF DANIEL P'
p108
(dp109
g3
F0.4333889053575665
sg4
F-0.32080504209563454
sg5
F-0.7779010413101575
sg6
I00
sg7
F1.64135447076885
sg8
F0.1726754367479511
sg9
F0.3074450362375499
sg10
F0.19612391985943306
sg11
F1.8564057254868467
sg12
F-0.08523703713119873
sg13
F-0.3859786488260224
sg14
F-0.23713650899861338
sg15
F-0.33276809292327364
sg16
F-0.32537032903650676
sg17
F0.3854164710833779
sg18
F-0.3992069600315817
sg19
F-0.33323456494697673
sg20
F0.48815314196852305
sg21
F-0.24516120646384834
sg22
F0.5416594318822843
sg23
F0.06305167395040992
sg24
F0.08289222856356568
sg25
F1.6162173491402498
sg26
F-0.4181111581341037
sg27
F0.5191413865803363
ssS'CHRISTODOULOU DIOMEDES'
p110
(dp111
g3
F0.011648768962155498
sg4
F-0.32080504209563454
sg5
F-0.7779010413101575
sg6
I00
sg7
F-0.45938601591090805
sg8
F0.01002644165433063
sg9
F0.3074450362375499
sg10
F0.19612391985943306
sg11
F-0.04507849739165334
sg12
F-0.08523703713119873
sg13
F0.03902402694493509
sg14
F-0.24038752236735278
sg15
F-0.16149002258964681
sg16
F-0.32537032903650676
sg17
F-0.5636116767277342
sg18
F0.5202085422248276
sg19
F-0.021554599284467433
sg20
F-0.4679569880521873
sg21
F0.05312257793551489
sg22
F-0.9628303028654596
sg23
F-0.5769897398469608
sg24
F-0.22184709918641785
sg25
F-0.23087269064614907
sg26
F0.626849002662083
sg27
F-0.5985927755639423
ssS'BERBERIAN DAVID'
p112
(dp113
g3
F0.011648768962155498
sg4
F-0.32080504209563454
sg5
F-0.5204048953352888
sg6
I00
sg7
F-0.45938601591090805
sg8
F0.01002644165433063
sg9
F0.3074450362375499
sg10
F0.19612391985943306
sg11
F-0.04507849739165334
sg12
F-0.08523703713119873
sg13
F0.03902402694493509
sg14
F-0.24038752236735278
sg15
F-0.16149002258964681
sg16
F-0.32537032903650676
sg17
F-0.5636116767277342
sg18
F-0.05618234658219947
sg19
F-0.021554599284467433
sg20
F-0.4679569880521873
sg21
F0.011928018672089662
sg22
F0.22748990539744057
sg23
F-0.5769897398469608
sg24
F-0.19571382036480434
sg25
F-0.23087269064614907
sg26
F-0.08704468845322172
sg27
F-0.5985927755639423
ssS'DETMERING TIMOTHY J'
p114
(dp115
g3
F0.011648768962155498
sg4
F1.2929604694832966
sg5
F0.353570629385837
sg6
I00
sg7
F0.16998411371427422
sg8
F0.01002644165433063
sg9
F-1.1283729885236873
sg10
F-0.9456438009106426
sg11
F-0.04507849739165334
sg12
F-0.08523703713119873
sg13
F0.03902402694493509
sg14
F-0.2392223034985701
sg15
F-0.16149002258964681
sg16
F-0.32537032903650676
sg17
F-0.1602747139080115
sg18
F-0.13108036145015767
sg19
F-0.021554599284467433
sg20
F-0.4679569880521873
sg21
F-0.2681363587655943
sg22
F0.19406363956438447
sg23
F0.024643280637621903
sg24
F-0.08406466703757082
sg25
F-0.23087269064614907
sg26
F-0.004814088614465784
sg27
F0.01917199298189036
ssS'WAKEHAM JOHN'
p116
(dp117
g3
F0.011648768962155498
sg4
F-0.32080504209563454
sg5
F1.4690841215093897
sg6
I00
sg7
F-0.45938601591090805
sg8
F0.01002644165433063
sg9
F0.3074450362375499
sg10
F0.19612391985943306
sg11
F-0.04507849739165334
sg12
F-0.08523703713119873
sg13
F0.03902402694493509
sg14
F-0.24038752236735278
sg15
F-0.16149002258964681
sg16
F3.23463335431128
sg17
F-0.5636116767277342
sg18
F-0.4571839294944819
sg19
F-0.021554599284467433
sg20
F-0.4679569880521873
sg21
F-0.42736942707633974
sg22
F-0.9628303028654596
sg23
F-0.5769897398469608
sg24
F-0.19747564400202045
sg25
F-0.23087269064614907
sg26
F-0.4181111581341037
sg27
F-0.5985927755639423
ssS'POWERS WILLIAM'
p118
(dp119
g3
F-0.6891621176278191
sg4
F-0.32080504209563454
sg5
F-0.7779010413101575
sg6
I00
sg7
F-0.45938601591090805
sg8
F-1.1093813481076455
sg9
F0.27503341787200725
sg10
F0.19612391985943306
sg11
F-1.278416159386101
sg12
F-0.08523703713119873
sg13
F-0.41193777133556797
sg14
F-0.24038752236735278
sg15
F-1.0852165699843621
sg16
F0.24463154161607853
sg17
F-0.5636116767277342
sg18
F-0.4571839294944819
sg19
F-0.5291032715478554
sg20
F-0.7767219540731074
sg21
F-0.42736942707633974
sg22
F-0.9628303028654596
sg23
F-0.5769897398469608
sg24
F-0.22184709918641785
sg25
F-2.4723180167147927
sg26
F-0.4181111581341037
sg27
F-0.5985927755639423
ssS'GOLD JOSEPH'
p120
(dp121
g3
F0.011648768962155498
sg4
F-0.32080504209563454
sg5
F-0.7779010413101575
sg6
I00
sg7
F0.0021367356857297493
sg8
F0.01002644165433063
sg9
F0.3074450362375499
sg10
F0.19612391985943306
sg11
F-0.04507849739165334
sg12
F-0.08523703713119873
sg13
F0.03902402694493509
sg14
F0.6235489813133948
sg15
F-0.16149002258964681
sg16
F-0.32537032903650676
sg17
F0.1481594341305999
sg18
F-0.31605418049494427
sg19
F-0.021554599284467433
sg20
F-0.4679569880521873
sg21
F-0.2044427271271333
sg22
F0.5368999537153283
sg23
F0.018691804284663643
sg24
F0.02372764468586537
sg25
F-0.23087269064614907
sg26
F-0.32914548719379716
sg27
F0.24236824013072478
ssS'BANNANTINE JAMES M'
p122
(dp123
g3
F-0.7341883688955594
sg4
F-0.32080504209563454
sg5
F0.4411782148730821
sg6
I00
sg7
F-0.45938601591090805
sg8
F-0.3631094882663281
sg9
F0.2979919562296796
sg10
F-1.834051775753112
sg11
F-0.744553635383302
sg12
F-0.08523703713119873
sg13
F-0.4098329776185778
sg14
F0.6712491401635166
sg15
F1.0985547102326432
sg16
F-0.32537032903650676
sg17
F-0.5636116767277342
sg18
F0.3860279311047343
sg19
F-0.5291032715478554
sg20
F-0.7767219540731074
sg21
F0.4608845297700784
sg22
F-0.9602087427203809
sg23
F-0.5769897398469608
sg24
F-0.11705079126286488
sg25
F1.0644938046831816
sg26
F0.4065319176704344
sg27
F-0.5985927755639423
ssS'DUNCAN JOHN H'
p124
(dp125
g3
F0.011648768962155498
sg4
F-0.32080504209563454
sg5
F-0.7779010413101575
sg6
I00
sg7
F-0.45938601591090805
sg8
F0.01002644165433063
sg9
F0.26114272428677465
sg10
F0.19612391985943306
sg11
F-0.04507849739165334
sg12
F-0.08523703713119873
sg13
F0.03902402694493509
sg14
F-0.24038752236735278
sg15
F-0.16149002258964681
sg16
F3.012951483930623
sg17
F-0.5636116767277342
sg18
F-0.397402335837864
sg19
F-0.021554599284467433
sg20
F-0.4679569880521873
sg21
F-0.42736942707633974
sg22
F-0.9628303028654596
sg23
F-0.5769897398469608
sg24
F-0.2129834208578357
sg25
F-0.23087269064614907
sg26
F-0.3423451748985701
sg27
F-0.5985927755639423
ssS'SHAPIRO RICHARD S'
p126
(dp127
g3
F6.813142921190138
sg4
F-0.32080504209563454
sg5
F2.2051524015522492
sg6
I00
sg7
F-0.45938601591090805
sg8
F0.3066216680015209
sg9
F0.3074450362375499
sg10
F0.19612391985943306
sg11
F4.042531513621928
sg12
F-0.08523703713119873
sg13
F0.4222621384982077
sg14
F-0.2396441021841023
sg15
F-0.9304038188666459
sg16
F-0.32537032903650676
sg17
F0.0532566193494887
sg18
F-0.2984630344825772
sg19
F0.3802871519562241
sg20
F-0.47221498650752963
sg21
F-0.23574270804116165
sg22
F0.5159934237533181
sg23
F0.4710861548349372
sg24
F-0.10088280236822526
sg25
F-1.237328901337818
sg26
F-0.29422852746312306
sg27
F0.14054381174866087
ssS'SHERRIFF JOHN R'
p128
(dp129
g3
F0.6222921434348675
sg4
F-0.32080504209563454
sg5
F-0.7779010413101575
sg6
I00
sg7
F0.38009616773342564
sg8
F-0.5735964230933663
sg9
F0.3074450362375499
sg10
F0.19612391985943306
sg11
F1.1858366831963552
sg12
F-0.08523703713119873
sg13
F-0.36563230956178394
sg14
F1.7127365280354712
sg15
F-0.8067744433249436
sg16
F-0.32537032903650676
sg17
F0.859930544988934
sg18
F0.045991673687419125
sg19
F-0.20731896784641188
sg20
F0.6462625289737269
sg21
F0.22631762507353778
sg22
F1.393715942431778
sg23
F0.012997680817074853
sg24
F0.27404260119033125
sg25
F0.3525035762065061
sg26
F-0.044007979503707925
sg27
F0.4717996959261494
ssS'SHELBY REX'
p130
(dp131
g3
F-0.9106705721403803
sg4
F-0.32080504209563454
sg5
F-0.2823963487026149
sg6
I01
sg7
F-0.45938601591090805
sg8
F-0.8606240614938732
sg9
F0.2997273668815947
sg10
F0.19612391985943306
sg11
F-1.1853143064143106
sg12
F-0.08523703713119873
sg13
F-0.40281699856194386
sg14
F1.4186774654232754
sg15
F0.7459160886864896
sg16
F-0.32537032903650676
sg17
F-0.37380604716551175
sg18
F-0.05618234658219947
sg19
F-0.33323456494697673
sg20
F1.2665378164556804
sg21
F0.011928018672089662
sg22
F0.20145017380963726
sg23
F-0.40679871034192017
sg24
F0.007360974517587866
sg25
F-0.7722604940283447
sg26
F-0.08704468845322172
sg27
F-0.30972431013622403
ssS'LEMAISTRE CHARLES'
p132
(dp133
g3
F0.011648768962155498
sg4
F-0.32080504209563454
sg5
F-0.7779010413101575
sg6
I00
sg7
F-0.45938601591090805
sg8
F0.01002644165433063
sg9
F0.26114272428677465
sg10
F0.19612391985943306
sg11
F-0.04507849739165334
sg12
F-0.08523703713119873
sg13
F0.03902402694493509
sg14
F-0.24038752236735278
sg15
F-0.16149002258964681
sg16
F3.3386668385892433
sg17
F-0.5636116767277342
sg18
F-0.3907884894789954
sg19
F-0.021554599284467433
sg20
F-0.4679569880521873
sg21
F-0.42736942707633974
sg22
F-0.9628303028654596
sg23
F-0.5769897398469608
sg24
F-0.21183960235675403
sg25
F-0.23087269064614907
sg26
F-0.33396291973108916
sg27
F-0.5985927755639423
ssS'DEFFNER JOSEPH M'
p134
(dp135
g3
F-0.6575919874285989
sg4
F-0.32080504209563454
sg5
F0.12342208115451513
sg6
I00
sg7
F0.04838515984139552
sg8
F1.0911638796295726
sg9
F0.3074450362375499
sg10
F0.19612391985943306
sg11
F-0.6420237466675327
sg12
F-0.08523703713119873
sg13
F-0.37826107186372504
sg14
F-0.21344196783884248
sg15
F4.019346836943918
sg16
F-0.32537032903650676
sg17
F0.005805211958933095
sg18
F-0.43158100465880256
sg19
F-0.4731407839476044
sg20
F-0.46904963341433237
sg21
F-0.35568806375884016
sg22
F0.16999694800191278
sg23
F0.26951718936005037
sg24
F-0.08359959043503101
sg25
F0.8511628853700153
sg26
F-0.41456936591711085
sg27
F0.29207413159354584
ssS'KISHKILL JOSEPH G'
p136
(dp137
g3
F0.011648768962155498
sg4
F-0.32080504209563454
sg5
F1.7410877025501146
sg6
I00
sg7
F-0.45938601591090805
sg8
F0.01002644165433063
sg9
F0.21291053197389115
sg10
F0.19612391985943306
sg11
F-0.04507849739165334
sg12
F-0.08523703713119873
sg13
F0.03902402694493509
sg14
F0.2503299048906586
sg15
F-0.16149002258964681
sg16
F-0.32537032903650676
sg17
F-0.5636116767277342
sg18
F-0.2908494243906537
sg19
F-0.021554599284467433
sg20
F-0.4679569880521873
sg21
F0.09538149423254058
sg22
F-0.005185923328022018
sg23
F-0.5769897398469608
sg24
F-0.14121979057257084
sg25
F-0.23087269064614907
sg26
F-0.4181111581341037
sg27
F-0.5985927755639423
ssS'MCCARTY DANNY J'
p138
(dp139
g3
F-0.2854784855722171
sg4
F-0.32080504209563454
sg5
F-0.7779010413101575
sg6
I00
sg7
F-0.45938601591090805
sg8
F-0.6310019507734678
sg9
F0.3074450362375499
sg10
F0.19612391985943306
sg11
F-0.6938779432594161
sg12
F-0.08523703713119873
sg13
F-0.2793357671651865
sg14
F-0.24038752236735278
sg15
F-0.5323086734239701
sg16
F-0.32537032903650676
sg17
F-0.5636116767277342
sg18
F-0.3351392633064235
sg19
F-0.5011220277477298
sg20
F-0.7237736942388066
sg21
F-0.379581514602871
sg22
F-0.9628303028654596
sg23
F-0.5769897398469608
sg24
F-0.22184709918641785
sg25
F-0.9921873208363707
sg26
F-0.28270557612439917
sg27
F-0.5985927755639423
ssS'MCCONNELL MICHAEL S'
p140
(dp141
g3
F0.6957832661937079
sg4
F-0.32080504209563454
sg5
F0.9838645507768944
sg6
I00
sg7
F0.38009616773342564
sg8
F0.6510548340821289
sg9
F0.3074450362375499
sg10
F0.19612391985943306
sg11
F1.2871880674441272
sg12
F-0.08523703713119873
sg13
F1.4936021404462105
sg14
F-0.23981809414188432
sg15
F-0.20935997099444525
sg16
F-0.32537032903650676
sg17
F0.48031928586448913
sg18
F0.0415367187739846
sg19
F2.1850773770643204
sg20
F-0.37401007995044383
sg21
F0.31973693935458103
sg22
F1.0433941672376539
sg23
F0.3156389914810698
sg24
F0.01851080288428195
sg25
F0.34231649877288794
sg26
F-0.08732716768056388
sg27
F0.3234284428992929
ssS'DELAINEY DAVID W'
p142
(dp143
g3
F0.5736430903409873
sg4
F-0.32080504209563454
sg5
F1.0880149428168473
sg6
I01
sg7
F1.5014190705718125
sg8
F0.153540260854584
sg9
F0.3074450362375499
sg10
F0.19612391985943306
sg11
F1.178765656388371
sg12
F-0.08523703713119873
sg13
F1.7230246555981406
sg14
F-0.23863600332568033
sg15
F-0.40894210453478247
sg16
F-0.32537032903650676
sg17
F2.283472766705602
sg18
F0.12403001124784925
sg19
F7.991185465590367
sg20
F0.3527632856473515
sg21
F0.24133991779278757
sg22
F1.0440811588899281
sg23
F0.5004473691620773
sg24
F0.3212355231083103
sg25
F0.43227040331998795
sg26
F0.048838214155642504
sg27
F1.915149766399627
ssS'SULLIVAN-SHAKLOVITZ COLLEEN'
p144
(dp145
g3
F0.011648768962155498
sg4
F0.014727550182028542
sg5
F-0.7779010413101575
sg6
I00
sg7
F0.38009616773342564
sg8
F0.01002644165433063
sg9
F0.3074450362375499
sg10
F0.19612391985943306
sg11
F-0.04507849739165334
sg12
F-0.08523703713119873
sg13
F0.03902402694493509
sg14
F-0.24021669389971223
sg15
F-0.16149002258964681
sg16
F-0.32537032903650676
sg17
F-0.4687088619466229
sg18
F-0.23809866074415276
sg19
F-0.021554599284467433
sg20
F-0.4679569880521873
sg21
F-0.42736942707633974
sg22
F-0.068207789541053
sg23
F-0.40635822757320234
sg24
F-0.10753891098971977
sg25
F-0.23087269064614907
sg26
F-0.14044691762163533
sg27
F-0.4106230399405832
ssS'WROBEL BRUCE'
p146
(dp147
g3
F0.011648768962155498
sg4
F-0.32080504209563454
sg5
F-0.7779010413101575
sg6
I00
sg7
F-0.45938601591090805
sg8
F0.01002644165433063
sg9
F0.3074450362375499
sg10
F0.19612391985943306
sg11
F-0.04507849739165334
sg12
F-0.08523703713119873
sg13
F0.03902402694493509
sg14
F-0.24038752236735278
sg15
F-0.16149002258964681
sg16
F-0.32537032903650676
sg17
F-0.5636116767277342
sg18
F-0.43481025598958545
sg19
F-0.021554599284467433
sg20
F-0.4679569880521873
sg21
F-0.42736942707633974
sg22
F-0.9628303028654596
sg23
F-0.5769897398469608
sg24
F-0.22184709918641785
sg25
F-0.23087269064614907
sg26
F-0.389755216647729
sg27
F-0.5985927755639423
ssS'LINDHOLM TOD A'
p148
(dp149
g3
F0.011648768962155498
sg4
F0.05543917481965392
sg5
F0.47205523338638206
sg6
I00
sg7
F-0.1944084678739283
sg8
F0.01002644165433063
sg9
F0.3074450362375499
sg10
F0.19612391985943306
sg11
F-0.04507849739165334
sg12
F-0.08523703713119873
sg13
F0.03902402694493509
sg14
F-0.2376141960099786
sg15
F-0.16149002258964681
sg16
F-0.32537032903650676
sg17
F-0.37380604716551175
sg18
F0.03557528378153138
sg19
F-0.021554599284467433
sg20
F-0.4679569880521873
sg21
F-0.1671695098502731
sg22
F0.33672157810904696
sg23
F-0.18762162224335088
sg24
F-0.12166129487702491
sg25
F-0.23087269064614907
sg26
F0.1014714720940691
sg27
F-0.3397928618795534
ssS'MEYER JEROME J'
p150
(dp151
g3
F0.011648768962155498
sg4
F-0.32080504209563454
sg5
F-0.7313256788823116
sg6
I00
sg7
F-0.45938601591090805
sg8
F0.01002644165433063
sg9
F0.23642469807497282
sg10
F0.19612391985943306
sg11
F-0.04507849739165334
sg12
F-0.08523703713119873
sg13
F0.03902402694493509
sg14
F-0.24038752236735278
sg15
F-0.16149002258964681
sg16
F0.9236177699374382
sg17
F-0.5636116767277342
sg18
F-0.4571839294944819
sg19
F-0.021554599284467433
sg20
F-0.4679569880521873
sg21
F-0.42736942707633974
sg22
F-0.9628303028654596
sg23
F-0.5769897398469608
sg24
F-0.22160106382683517
sg25
F-0.23087269064614907
sg26
F-0.4181111581341037
sg27
F-0.5985927755639423
ssS'LAY KENNETH L'
p152
(dp153
g3
F1.1843439696045905
sg4
F0.0532931585585274
sg5
F1.383750089278734
sg6
I01
sg7
F4.991580686564104
sg8
F1.2442452867765095
sg9
F-0.2481827071717527
sg10
F0.19612391985943306
sg11
F1.5488160593395386
sg12
F11.78968421153449
sg13
F-0.40492179227893405
sg14
F10.683912664306987
sg15
F-0.17293018627419945
sg16
F-0.32537032903650676
sg17
F6.07958535795005
sg18
F7.440270616412208
sg19
F-0.3052533211468512
sg20
F1.7530282380101534
sg21
F7.033083012029889
sg22
F4.930574301601584
sg23
F-0.4617276922433141
sg24
F11.623513620972462
sg25
F-0.06859476962316877
sg26
F6.582397480229504
sg27
F1.3987818833790737
ssS'BUTTS ROBERT H'
p154
(dp155
g3
F0.011648768962155498
sg4
F-0.32080504209563454
sg5
F-0.5741473637434307
sg6
I00
sg7
F-0.1944084678739283
sg8
F0.01002644165433063
sg9
F0.16853810038522424
sg10
F0.19612391985943306
sg11
F-0.04507849739165334
sg12
F-0.08523703713119873
sg13
F0.03902402694493509
sg14
F-0.08152126544850775
sg15
F-0.16149002258964681
sg16
F-0.32537032903650676
sg17
F0.1481594341305999
sg18
F-0.3900260831964775
sg19
F-0.021554599284467433
sg20
F-0.4679569880521873
sg21
F-0.2163078316275312
sg22
F0.47444416862377126
sg23
F0.4287748839436449
sg24
F-0.07640119746217369
sg25
F-0.23087269064614907
sg26
F-0.4181111581341037
sg27
F0.27891162937786157
ssS'OLSON CINDY K'
p156
(dp157
g3
F-0.41434672195919775
sg4
F-0.17752342719038616
sg5
F0.6033583471764598
sg6
I00
sg7
F-0.30797027417549105
sg8
F-0.7266778302403033
sg9
F0.3074450362375499
sg10
F0.19612391985943306
sg11
F-0.28375838839633866
sg12
F-0.08523703713119873
sg13
F-0.3936962257883197
sg14
F-0.23936255156150954
sg15
F-0.5498672350039285
sg16
F-0.32537032903650676
sg17
F0.1481594341305999
sg18
F-0.03798703258767264
sg19
F-0.319243943046914
sg20
F0.8651832186732398
sg21
F0.06272453390957716
sg22
F0.8457604087113966
sg23
F0.39074164960419866
sg24
F-0.070684964503018
sg25
F0.6303867380000447
sg26
F-0.08446895073666308
sg27
F0.09875387769990628
ssS'MCDONALD REBECCA'
p158
(dp159
g3
F-0.5644342261849985
sg4
F-0.32080504209563454
sg5
F-0.7779010413101575
sg6
I00
sg7
F-0.45938601591090805
sg8
F-0.0760818498658214
sg9
F0.3074450362375499
sg10
F0.19612391985943306
sg11
F-0.4440349960439781
sg12
F-0.08523703713119873
sg13
F-0.4210585441091921
sg14
F-0.24038752236735278
sg15
F0.8291064211403023
sg16
F-0.32537032903650676
sg17
F-0.5636116767277342
sg18
F-0.18519319664547249
sg19
F-0.5151126496477927
sg20
F-0.3388805746740814
sg21
F0.04470020853145427
sg22
F-0.9628303028654596
sg23
F-0.5769897398469608
sg24
F-0.22184709918641785
sg25
F0.9932199781953605
sg26
F-0.26376642411862866
sg27
F-0.5985927755639423
ssS'CUMBERLAND MICHAEL S'
p160
(dp161
g3
F0.011648768962155498
sg4
F-0.32080504209563454
sg5
F-0.29408890830793183
sg6
I00
sg7
F-0.04299272613851129
sg8
F0.01002644165433063
sg9
F0.3074450362375499
sg10
F0.19612391985943306
sg11
F-0.04507849739165334
sg12
F-0.08523703713119873
sg13
F0.03902402694493509
sg14
F-0.23963566621039165
sg15
F-0.16149002258964681
sg16
F-0.32537032903650676
sg17
F-0.25517752868912275
sg18
F-0.42374483175418026
sg19
F-0.021554599284467433
sg20
F-0.4679569880521873
sg21
F-0.3222780683076409
sg22
F0.05336225324539902
sg23
F0.10893286377814494
sg24
F-0.12943159710042307
sg25
F-0.23087269064614907
sg26
F-0.4181111581341037
sg27
F-0.06077505787015809
ssS'GAHN ROBERT S'
p162
(dp163
g3
F0.011648768962155498
sg4
F-0.1859931855268254
sg5
F0.30647559764219934
sg6
I00
sg7
F-0.45938601591090805
sg8
F0.01002644165433063
sg9
F0.3055151558754416
sg10
F0.19612391985943306
sg11
F-0.04507849739165334
sg12
F-0.08523703713119873
sg13
F0.03902402694493509
sg14
F-0.1596689624137709
sg15
F-0.16149002258964681
sg16
F-0.32537032903650676
sg17
F-0.07973069500328243
sg18
F-0.4059483297361656
sg19
F-0.021554599284467433
sg20
F-0.4679569880521873
sg21
F-0.30841514645025214
sg22
F0.0924328424935404
sg23
F0.3884256427587924
sg24
F-0.1188365207067536
sg25
F-0.23087269064614907
sg26
F-0.401146711203166
sg27
F0.21391297290176634
ssS'MCCLELLAN GEORGE'
p164
(dp165
g3
F-0.12452257586799628
sg4
F-0.32080504209563454
sg5
F4.175478612377103
sg6
I00
sg7
F-0.45938601591090805
sg8
F-0.11435220165255562
sg9
F0.07593347648367381
sg10
F0.19612391985943306
sg11
F0.4386648504860361
sg12
F-0.08523703713119873
sg13
F-0.3958010195053099
sg14
F-0.18598920039097971
sg15
F-0.1402513218170647
sg16
F-0.32537032903650676
sg17
F0.2905136563022667
sg18
F-0.3047571880151126
sg19
F-0.5291032715478554
sg20
F-0.7767219540731074
sg21
F-0.2044427271271333
sg22
F0.4848699539386853
sg23
F0.5867482708635969
sg24
F-0.07100454739222023
sg25
F1.1559185888542038
sg26
F-0.31482790730866944
sg27
F0.44682916775439396
ssS'HERMANN ROBERT J'
p166
(dp167
g3
F0.011648768962155498
sg4
F-0.32080504209563454
sg5
F0.2691676713459751
sg6
I00
sg7
F-0.23226240330778256
sg8
F0.01002644165433063
sg9
F-0.21114085761113252
sg10
F0.19612391985943306
sg11
F-0.04507849739165334
sg12
F-0.08523703713119873
sg13
F0.03902402694493509
sg14
F0.19874814363692675
sg15
F-0.16149002258964681
sg16
F-0.32537032903650676
sg17
F0.1007080267400443
sg18
F-0.34974076679647664
sg19
F-0.021554599284467433
sg20
F-0.4679569880521873
sg21
F-0.18446152120100423
sg22
F0.4807480040250398
sg23
F0.34300044025015114
sg24
F-0.07344110956322442
sg25
F-0.23087269064614907
sg26
F-0.37989697694604035
sg27
F0.21683489854791732
ssS'SCRIMSHAW MATTHEW'
p168
(dp169
g3
F0.011648768962155498
sg4
F-0.32080504209563454
sg5
F-0.7779010413101575
sg6
I00
sg7
F-0.45938601591090805
sg8
F0.01002644165433063
sg9
F0.3074450362375499
sg10
F0.19612391985943306
sg11
F-0.04507849739165334
sg12
F-0.08523703713119873
sg13
F0.03902402694493509
sg14
F-0.24038752236735278
sg15
F-0.16149002258964681
sg16
F-0.32537032903650676
sg17
F-0.5636116767277342
sg18
F-0.33503859544461034
sg19
F-0.021554599284467433
sg20
F-0.4679569880521873
sg21
F-0.42736942707633974
sg22
F-0.9628303028654596
sg23
F-0.5769897398469608
sg24
F-0.22184709918641785
sg25
F-0.23087269064614907
sg26
F-0.2633066310905739
sg27
F-0.5985927755639423
ssS'GATHMANN WILLIAM D'
p170
(dp171
g3
F0.011648768962155498
sg4
F-0.32080504209563454
sg5
F-0.7779010413101575
sg6
I00
sg7
F-0.45938601591090805
sg8
F0.01002644165433063
sg9
F0.3074450362375499
sg10
F-0.06631363828816716
sg11
F-0.04507849739165334
sg12
F-0.08523703713119873
sg13
F0.03902402694493509
sg14
F-0.24038752236735278
sg15
F-0.16149002258964681
sg16
F-0.32537032903650676
sg17
F-0.5636116767277342
sg18
F-0.14434809617682684
sg19
F-0.021554599284467433
sg20
F-0.4679569880521873
sg21
F-0.293939183243501
sg22
F-0.9628303028654596
sg23
F-0.5769897398469608
sg24
F-0.22184709918641785
sg25
F-0.23087269064614907
sg26
F-0.060677922478289674
sg27
F-0.5985927755639423
ssS'HAEDICKE MARK E'
p172
(dp173
g3
F1.0477125864473096
sg4
F3.656933811701212
sg5
F0.8713777967961138
sg6
I00
sg7
F1.0295546238146456
sg8
F2.3349503126984352
sg9
F-1.4233057510027791
sg10
F-0.9991213557730978
sg11
F0.884139539389034
sg12
F-0.08523703713119873
sg13
F0.9316222180098318
sg14
F-0.1851508755034845
sg15
F0.33775237826994076
sg16
F-0.32537032903650676
sg17
F0.5277706932550448
sg18
F-0.3280373547101701
sg19
F0.32432466435597307
sg20
F-0.5978408547101874
sg21
F-0.1624582390681157
sg22
F1.0933357123913832
sg23
F-0.06883590098487306
sg24
F0.2195598952012585
sg25
F-0.524478959619746
sg26
F-0.294042449876858
sg27
F0.34192588622797176
ssS'BOWEN JR RAYMOND M'
p174
(dp175
g3
F-0.06552266041371599
sg4
F-0.32080504209563454
sg5
F0.6491758585187758
sg6
I01
sg7
F1.0158469567153383
sg8
F1.5695432769637505
sg9
F0.3059022432033501
sg10
F0.19612391985943306
sg11
F0.5847994045177074
sg12
F-0.08523703713119873
sg13
F-0.4112361734299046
sg14
F-0.23867818319423356
sg15
F1.3028217983244825
sg16
F-0.32537032903650676
sg17
F0.7175763228172671
sg18
F-0.4166506420994077
sg19
F-0.319243943046914
sg20
F2.3854657860309687
sg21
F-0.29998266919212124
sg22
F0.5683421876566164
sg23
F0.2853309939169373
sg24
F0.08350542966199556
sg25
F1.222222439563865
sg26
F-0.4181111581341037
sg27
F0.8840529993362534
ssS'GILLIS JOHN'
p176
(dp177
g3
F0.011648768962155498
sg4
F-0.32080504209563454
sg5
F-0.7779010413101575
sg6
I00
sg7
F-0.45938601591090805
sg8
F0.01002644165433063
sg9
F0.3074450362375499
sg10
F0.19612391985943306
sg11
F-0.04507849739165334
sg12
F-0.08523703713119873
sg13
F0.03902402694493509
sg14
F-0.24038752236735278
sg15
F-0.16149002258964681
sg16
F-0.32537032903650676
sg17
F-0.5636116767277342
sg18
F-0.44341189059106184
sg19
F-0.021554599284467433
sg20
F-0.4679569880521873
sg21
F-0.3890414552272458
sg22
F-0.9628303028654596
sg23
F-0.5769897398469608
sg24
F-0.22184709918641785
sg25
F-0.23087269064614907
sg26
F-0.4161132188371086
sg27
F-0.5985927755639423
ssS'FITZGERALD JAY L'
p178
(dp179
g3
F-0.5426974152281584
sg4
F-0.32080504209563454
sg5
F-0.2610466009788325
sg6
I00
sg7
F0.38311539762362984
sg8
F-1.0902461722142784
sg9
F0.3074450362375499
sg10
F0.19612391985943306
sg11
F-0.44049948263998606
sg12
F-0.08523703713119873
sg13
F-0.4189537503922019
sg14
F0.06058060271386025
sg15
F-1.051356868455685
sg16
F-0.32537032903650676
sg17
F-0.23145182499384492
sg18
F-0.1964708917716019
sg19
F-0.4171782963473533
sg20
F2.0692470120205613
sg21
F0.05617767682825695
sg22
F0.13172326907040954
sg23
F-0.1551621703261615
sg24
F-0.06001313788792596
sg25
F0.8481977906126725
sg26
F-0.28268804855329427
sg27
F-0.0608695743577497
ssS'MORAN MICHAEL P'
p180
(dp181
g3
F-0.6793287983854391
sg4
F-0.32080504209563454
sg5
F-0.7779010413101575
sg6
I00
sg7
F-0.45938601591090805
sg8
F-1.1093813481076455
sg9
F0.3074450362375499
sg10
F0.19612391985943306
sg11
F-1.142888145566406
sg12
F-0.08523703713119873
sg13
F-0.4168489566752117
sg14
F-0.24038752236735278
sg15
F-1.0852165699843621
sg16
F-0.32537032903650676
sg17
F-0.5636116767277342
sg18
F-0.42162196203565705
sg19
F-0.5291032715478554
sg20
F-0.7767219540731074
sg21
F-0.3456969554030721
sg22
F-0.9628303028654596
sg23
F-0.5769897398469608
sg24
F-0.22184709918641785
sg25
F-1.721027165677226
sg26
F-0.4059765760874045
sg27
F-0.5985927755639423
ssS'REDMOND BRIAN L'
p182
(dp183
g3
F-0.16230322348345647
sg4
F-0.32080504209563454
sg5
F-0.45984176715737857
sg6
I00
sg7
F-0.45938601591090805
sg8
F2.794194534139246
sg9
F0.3074450362375499
sg10
F0.19612391985943306
sg11
F-0.03980796352088748
sg12
F-0.08523703713119873
sg13
F-0.2751261797312061
sg14
F-0.24038752236735278
sg15
F2.7839078158275465
sg16
F-0.32537032903650676
sg17
F-0.5636116767277342
sg18
F0.8116691792803945
sg19
F0.15643720155521992
sg20
F0.48529143360643795
sg21
F-0.2346707701170085
sg22
F-0.43060413001554937
sg23
F-0.5769897398469608
sg24
F-0.209090205825704
sg25
F0.248042383072864
sg26
F1.112298318635145
sg27
F-0.5985927755639423
ssS'BAZELIDES PHILIP J'
p184
(dp185
g3
F0.011648768962155498
sg4
F0.9415355574711742
sg5
F-0.7779010413101575
sg6
I00
sg7
F-0.3174337580339546
sg8
F0.01002644165433063
sg9
F0.3074450362375499
sg10
F0.19612391985943306
sg11
F-0.04507849739165334
sg12
F-0.08523703713119873
sg13
F0.03902402694493509
sg14
F-0.23946589223946493
sg15
F-0.16149002258964681
sg16
F-0.32537032903650676
sg17
F-0.5636116767277342
sg18
F-0.19994361138159428
sg19
F-0.021554599284467433
sg20
F-0.4679569880521873
sg21
F-0.42736942707633974
sg22
F-0.5186599720374542
sg23
F-0.5769897398469608
sg24
F-0.12346315216177887
sg25
F-0.23087269064614907
sg26
F-0.09208997941487776
sg27
F-0.5985927755639423
ssS'BELDEN TIMOTHY N'
p186
(dp187
g3
F3.1085692824029603
sg4
F3.6320186366557965
sg5
F-0.4021151673281656
sg6
I01
sg7
F-0.45938601591090805
sg8
F3.253438755580057
sg9
F-4.0161426156222895
sg10
F0.19612391985943306
sg11
F5.213964954811293
sg12
F-0.08523703713119873
sg13
F-0.09060593054173344
sg14
F-0.018207173756697996
sg15
F-0.18095788098024507
sg16
F-0.32537032903650676
sg17
F4.4187851502524556
sg18
F-0.27857003579609907
sg19
F0.9818838936589228
sg20
F0.4933798985637365
sg21
F-0.347735204176344
sg22
F0.2132939098948454
sg23
F1.0502341261211405
sg24
F0.407439518824181
sg25
F0.48916268529836
sg26
F-0.2238534951961519
sg27
F6.907843178641776
ssS'DURAN WILLIAM D'
p188
(dp189
g3
F-0.5592587950047985
sg4
F-0.32080504209563454
sg5
F-0.2195813201562733
sg6
I00
sg7
F1.214088016582433
sg8
F0.9189472965892685
sg9
F0.3074450362375499
sg10
F0.19612391985943306
sg11
F-0.5866340366716573
sg12
F-0.08523703713119873
sg13
F-0.4217601420148555
sg14
F-0.23873407152006657
sg15
F2.630960583632028
sg16
F-0.32537032903650676
sg17
F0.1481594341305999
sg18
F-0.19330709063212564
sg19
F-0.4871314058476671
sg20
F0.6462625289737269
sg21
F-0.33182948501135173
sg22
F0.19511885874227772
sg23
F0.03397610240454136
sg24
F0.017584195516555684
sg25
F0.36457981498389613
sg26
F-0.1222072379883311
sg27
F0.490586889362874
ssS'THORN TERENCE H'
p190
(dp191
g3
F-0.8894513043015602
sg4
F-0.29022615403116325
sg5
F0.22127148274049158
sg6
I00
sg7
F-0.15655453244007406
sg8
F-1.1093813481076455
sg9
F0.3074450362375499
sg10
F0.19612391985943306
sg11
F-1.2065273868382627
sg12
F-0.08523703713119873
sg13
F-0.40141380275061705
sg14
F0.2094913561574317
sg15
F-1.0852165699843621
sg16
F-0.32537032903650676
sg17
F-0.5636116767277342
sg18
F0.31757201614769504
sg19
F-0.5291032715478554
sg20
F-0.7767219540731074
sg21
F-0.24273936462860932
sg22
F0.2577779933629079
sg23
F-0.5769897398469608
sg24
F-0.11759341875977804
sg25
F-1.344755080394246
sg26
F0.4893433730632489
sg27
F-0.5985927755639423
ssS'FASTOW ANDREW S'
p192
(dp193
g3
F0.2238578772906113
sg4
F-0.32080504209563454
sg5
F0.4329501173730443
sg6
I01
sg7
F2.1692745392738857
sg8
F0.7617654946080389
sg9
F-2.25965700339972
sg10
F0.19612391985943306
sg11
F0.8087152534372036
sg12
F-0.08523703713119873
sg13
F-0.21944937450320393
sg14
F0.052197353838907924
sg15
F0.19691344726215784
sg16
F-0.32537032903650676
sg17
F0.6701249154267115
sg18
F-0.16862223739882862
sg19
F0.40427107521347444
sg20
F0.4875515366909765
sg21
F0.47951330482160404
sg22
F1.4592164745262146
sg23
F0.33749261597093155
sg24
F0.05542399916933973
sg25
F0.6950074527460511
sg26
F-0.4181111581341037
sg27
F0.30399319654269763
ssS'FOY JOE'
p194
(dp195
g3
F-0.9976178159677407
sg4
F0.014288759915578274
sg5
F-0.7779010413101575
sg6
I00
sg7
F-0.45938601591090805
sg8
F-1.1093813481076455
sg9
F0.3074450362375499
sg10
F0.19612391985943306
sg11
F-1.2902012040660744
sg12
F-0.08523703713119873
sg13
F-0.4210585441091921
sg14
F-0.24038752236735278
sg15
F-1.0852165699843621
sg16
F-0.32537032903650676
sg17
F-0.5636116767277342
sg18
F-0.4019558680664606
sg19
F-0.5291032715478554
sg20
F-0.7767219540731074
sg21
F-0.42736942707633974
sg22
F-0.9628303028654596
sg23
F-0.5769897398469608
sg24
F-0.20105762602000782
sg25
F-2.3987307839916676
sg26
F-0.34811622958934985
sg27
F-0.5985927755639423
ssS'CALGER CHRISTOPHER F'
p196
(dp197
g3
F0.31745924692108596
sg4
F-0.32080504209563454
sg5
F-0.002337893267116027
sg6
I01
sg7
F0.10888331945178138
sg8
F2.6985186546724105
sg9
F-0.17872923924558987
sg10
F0.19612391985943306
sg11
F1.28600956297613
sg12
F-0.08523703713119873
sg13
F-0.32914921846728745
sg14
F-0.23987503696443116
sg15
F1.3423598139792603
sg16
F-0.32537032903650676
sg17
F0.622673508036156
sg18
F-0.43691736620258526
sg19
F-0.17933772404628637
sg20
F0.2114617147094164
sg21
F-0.3636763008305822
sg22
F0.3572324008793471
sg23
F0.7232751418359659
sg24
F-0.034341275449648795
sg25
F1.1553451772098478
sg26
F-0.4181111581341037
sg27
F0.9937743600581496
ssS'LEWIS RICHARD'
p198
(dp199
g3
F-0.5344167253398383
sg4
F-0.32080504209563454
sg5
F-0.7779010413101575
sg6
I00
sg7
F-0.45938601591090805
sg8
F-0.9180295891739745
sg9
F0.3074450362375499
sg10
F0.19612391985943306
sg11
F-0.42164341115202847
sg12
F-0.08523703713119873
sg13
F-0.41193777133556797
sg14
F-0.24038752236735278
sg15
F-0.7523102608368656
sg16
F-0.32537032903650676
sg17
F-0.5636116767277342
sg18
F-0.32041763378957416
sg19
F-0.5291032715478554
sg20
F-0.7767219540731074
sg21
F-0.42736942707633974
sg22
F-0.9628303028654596
sg23
F-0.5769897398469608
sg24
F-0.22184709918641785
sg25
F0.8650395288343792
sg26
F-0.24477631987127405
sg27
F-0.5985927755639423
ssS'KAMINSKI WINCENTY J'
p200
(dp201
g3
F1.3572033710232714
sg4
F-0.32080504209563454
sg5
F1.0319556153757998
sg6
I00
sg7
F0.030392427250975917
sg8
F-0.3248391364795939
sg9
F0.3074450362375499
sg10
F0.19612391985943306
sg11
F-0.6054901081596149
sg12
F-0.08523703713119873
sg13
F9.650379391688832
sg14
F-0.23546407721047824
sg15
F-0.8031675346328301
sg16
F-0.32537032903650676
sg17
F-0.1840004176032893
sg18
F-0.30022616936583524
sg19
F1.8632930733628768
sg20
F-0.7089796526808444
sg21
F-0.3636763008305822
sg22
F0.5491064213929372
sg23
F0.0506080911844754
sg24
F-0.09753450247000887
sg25
F-1.9959898120514152
sg26
F-0.2448714986585531
sg27
F-0.15370125434032234
ssS'LOCKHART EUGENE E'
p202
(dp203
g3
F0.011648768962155498
sg4
F-0.32080504209563454
sg5
F-0.7779010413101575
sg6
I00
sg7
F-0.45938601591090805
sg8
F0.01002644165433063
sg9
F0.3074450362375499
sg10
F0.19612391985943306
sg11
F-0.04507849739165334
sg12
F-0.08523703713119873
sg13
F0.03902402694493509
sg14
F-0.24038752236735278
sg15
F-0.16149002258964681
sg16
F-0.32537032903650676
sg17
F-0.5636116767277342
sg18
F-0.4571839294944819
sg19
F-0.021554599284467433
sg20
F-0.4679569880521873
sg21
F-0.42736942707633974
sg22
F-0.9628303028654596
sg23
F-0.5769897398469608
sg24
F-0.22184709918641785
sg25
F-0.23087269064614907
sg26
F-0.4181111581341037
sg27
F-0.5985927755639423
ssS'COX DAVID'
p204
(dp205
g3
F-0.9743283756568406
sg4
F-0.32080504209563454
sg5
F-0.17462992434027702
sg6
I00
sg7
F-0.45938601591090805
sg8
F-1.1093813481076455
sg9
F0.23104622151877077
sg10
F0.19612391985943306
sg11
F-1.2088843957742574
sg12
F-0.08523703713119873
sg13
F-0.40702658599592423
sg14
F-0.23986660099072052
sg15
F-1.0852165699843621
sg16
F-0.32537032903650676
sg17
F0.19561084152115552
sg18
F-0.37748055193211333
sg19
F-0.4731407839476044
sg20
F-0.08679008350494527
sg21
F-0.23628954294636378
sg22
F0.7644755564143068
sg23
F0.6615990333146927
sg24
F-0.09586773015023266
sg25
F0.5119560451300071
sg26
F-0.39415321033230083
sg27
F0.18024766619736624
ssS'OVERDYKE JR JERE C'
p206
(dp207
g3
F0.011648768962155498
sg4
F-0.32080504209563454
sg5
F-0.370090545742492
sg6
I00
sg7
F-0.253708928967187
sg8
F0.01002644165433063
sg9
F0.3074450362375499
sg10
F0.19612391985943306
sg11
F-0.04507849739165334
sg12
F-0.08523703713119873
sg13
F0.03902402694493509
sg14
F-0.2402019309457186
sg15
F-0.16149002258964681
sg16
F-0.32537032903650676
sg17
F-0.5636116767277342
sg18
F0.7179596215896857
sg19
F-0.021554599284467433
sg20
F-0.4679569880521873
sg21
F0.6041451670789677
sg22
F-0.4410409071968998
sg23
F-0.5769897398469608
sg24
F-0.19327599999344894
sg25
F-0.23087269064614907
sg26
F0.6552646601755943
sg27
F-0.5985927755639423
ssS'PEREIRA PAULO V. FERRAZ'
p208
(dp209
g3
F0.011648768962155498
sg4
F-0.32080504209563454
sg5
F-0.17287604039947949
sg6
I00
sg7
F-0.45938601591090805
sg8
F0.01002644165433063
sg9
F0.11992067283691027
sg10
F0.19612391985943306
sg11
F-0.04507849739165334
sg12
F-0.08523703713119873
sg13
F0.03902402694493509
sg14
F-0.24038752236735278
sg15
F-0.16149002258964681
sg16
F2.9724976368820224
sg17
F-0.5636116767277342
sg18
F-0.4571839294944819
sg19
F-0.021554599284467433
sg20
F-0.4679569880521873
sg21
F-0.42736942707633974
sg22
F-0.9628303028654596
sg23
F-0.5769897398469608
sg24
F-0.21865104153069542
sg25
F-0.23087269064614907
sg26
F-0.4181111581341037
sg27
F-0.5985927755639423
ssS'STABLER FRANK'
p210
(dp211
g3
F0.011648768962155498
sg4
F-0.32080504209563454
sg5
F-0.4203252462690389
sg6
I00
sg7
F-0.45938601591090805
sg8
F0.01002644165433063
sg9
F0.3074450362375499
sg10
F0.19612391985943306
sg11
F-0.04507849739165334
sg12
F-0.08523703713119873
sg13
F0.03902402694493509
sg14
F0.13508817702298057
sg15
F-0.16149002258964681
sg16
F-0.32537032903650676
sg17
F-0.08909760282217812
sg18
F-0.3748913294991202
sg19
F-0.021554599284467433
sg20
F-0.4679569880521873
sg21
F-0.16874279733631214
sg22
F0.3534566947584478
sg23
F0.18968420553615284
sg24
F-0.0946445306451759
sg25
F-0.23087269064614907
sg26
F-0.4181111581341037
sg27
F0.040181130187048705
ssS'SKILLING JEFFREY K'
p212
(dp213
g3
F0.8500111153636686
sg4
F-0.32080504209563454
sg5
F-0.14269191430723538
sg6
I01
sg7
F2.4477962254090984
sg8
F0.5745141305086605
sg9
F0.3074450362375499
sg10
F0.19612391985943306
sg11
F1.113947910648517
sg12
F-0.08523703713119873
sg13
F-0.35440674307116965
sg14
F-0.21705994606399487
sg15
F-0.3162736707524717
sg16
F-0.32537032903650676
sg17
F4.750945951014493
sg18
F3.7389728869495507
sg19
F-0.10938461454597256
sg20
F0.8043719159789309
sg21
F3.0313724669666473
sg22
F5.144569453318405
sg23
F0.5228056504977
sg24
F0.7712980208573719
sg25
F-0.0740589061633438
sg26
F3.5052114438404014
sg27
F0.943318673732213
ssS'BLAKE JR. NORMAN P'
p214
(dp215
g3
F0.011648768962155498
sg4
F-0.32080504209563454
sg5
F-0.7502069973560828
sg6
I00
sg7
F-0.45938601591090805
sg8
F0.01002644165433063
sg9
F0.09670654571726961
sg10
F0.19612391985943306
sg11
F-0.04507849739165334
sg12
F-0.08523703713119873
sg13
F0.03902402694493509
sg14
F-0.24038752236735278
sg15
F-0.16149002258964681
sg16
F3.3807492624111366
sg17
F-0.5636116767277342
sg18
F-0.4571839294944819
sg19
F-0.021554599284467433
sg20
F-0.4679569880521873
sg21
F-0.42736942707633974
sg22
F-0.9628303028654596
sg23
F-0.5769897398469608
sg24
F-0.2217008048001295
sg25
F-0.23087269064614907
sg26
F-0.4181111581341037
sg27
F-0.5985927755639423
ssS'SHERRICK JEFFREY B'
p216
(dp217
g3
F-0.7098638423486192
sg4
F-0.32080504209563454
sg5
F-0.7779010413101575
sg6
I00
sg7
F-0.45938601591090805
sg8
F-0.3631094882663281
sg9
F0.3074450362375499
sg10
F0.19612391985943306
sg11
F-0.6054901081596149
sg12
F-0.08523703713119873
sg13
F-0.41263936924123135
sg14
F-0.24038752236735278
sg15
F0.9311203706401485
sg16
F-0.32537032903650676
sg17
F-0.5636116767277342
sg18
F-0.16250240329473647
sg19
F-0.2772720773467257
sg20
F3.321473357101775
sg21
F-0.22218049484236377
sg22
F-0.9628303028654596
sg23
F-0.5769897398469608
sg24
F-0.22184709918641785
sg25
F1.6347744517034946
sg26
F-0.12738398573327409
sg27
F-0.5985927755639423
ssS'PRENTICE JAMES'
p218
(dp219
g3
F0.011648768962155498
sg4
F0.7196588624870395
sg5
F-0.7779010413101575
sg6
I00
sg7
F-0.45938601591090805
sg8
F0.01002644165433063
sg9
F0.3074450362375499
sg10
F0.19612391985943306
sg11
F-0.04507849739165334
sg12
F-0.08523703713119873
sg13
F0.03902402694493509
sg14
F-0.24038752236735278
sg15
F-0.16149002258964681
sg16
F-0.32537032903650676
sg17
F-0.5636116767277342
sg18
F-0.2810891445106409
sg19
F-0.021554599284467433
sg20
F-0.4679569880521873
sg21
F-0.3218388820482872
sg22
F-0.9628303028654596
sg23
F-0.5769897398469608
sg24
F-0.1572959308415736
sg25
F-0.23087269064614907
sg26
F-0.23748933408888462
sg27
F-0.5985927755639423
ssS'GRAY RODNEY'
p220
(dp221
g3
F0.011648768962155498
sg4
F-0.14826644089501087
sg5
F-0.7779010413101575
sg6
I00
sg7
F0.09422778980921037
sg8
F0.01002644165433063
sg9
F0.3074450362375499
sg10
F0.19612391985943306
sg11
F-0.04507849739165334
sg12
F-0.08523703713119873
sg13
F0.03902402694493509
sg14
F0.47754863879999543
sg15
F-0.16149002258964681
sg16
F-0.32537032903650676
sg17
F-0.5636116767277342
sg18
F-0.4571839294944819
sg19
F-0.021554599284467433
sg20
F-0.4679569880521873
sg21
F-0.42736942707633974
sg22
F-0.926474704627106
sg23
F-0.5769897398469608
sg24
F-0.09069023570508644
sg25
F-0.23087269064614907
sg26
F-0.4181111581341037
sg27
F-0.5985927755639423
ssS'PICKERING MARK R'
p222
(dp223
g3
F-0.5623640537129185
sg4
F-0.32080504209563454
sg5
F-0.09252217244516248
sg6
I00
sg7
F-0.45938601591090805
sg8
F-0.9754351168540758
sg9
F0.3074450362375499
sg10
F0.19612391985943306
sg11
F-0.4346069602999993
sg12
F-0.026973087429067164
sg13
F-0.38317225720336884
sg14
F-0.24038752236735278
sg15
F-0.8381689481403848
sg16
F-0.32537032903650676
sg17
F-0.2789032323844005
sg18
F-0.45255288622851475
sg19
F-0.5291032715478554
sg20
F-0.7767219540731074
sg21
F-0.42736942707633974
sg22
F2.6372093045807055
sg23
F-0.20807896906216936
sg24
F-0.06323493145992272
sg25
F1.0166524181180054
sg26
F-0.41224186752154984
sg27
F-0.4584593528945292
ssS'NOLES JAMES L'
p224
(dp225
g3
F0.011648768962155498
sg4
F1.106924458447873
sg5
F-0.7779010413101575
sg6
I00
sg7
F-0.45938601591090805
sg8
F0.01002644165433063
sg9
F0.3074450362375499
sg10
F-0.14653540639755042
sg11
F-0.04507849739165334
sg12
F-0.08523703713119873
sg13
F0.03902402694493509
sg14
F-0.24038752236735278
sg15
F-0.16149002258964681
sg16
F-0.32537032903650676
sg17
F-0.5636116767277342
sg18
F-0.39789200618805737
sg19
F-0.021554599284467433
sg20
F-0.4679569880521873
sg21
F-0.19324069785374573
sg22
F-0.9628303028654596
sg23
F-0.5769897398469608
sg24
F-0.13326968008080264
sg25
F-0.23087269064614907
sg26
F-0.4181111581341037
sg27
F-0.5985927755639423
ssS'KEAN STEVEN J'
p226
(dp227
g3
F5.573627153532232
sg4
F-0.32080504209563454
sg5
F0.1305025755821793
sg6
I00
sg7
F-0.005138790704657038
sg8
F1.5695432769637505
sg9
F0.3074450362375499
sg10
F0.19612391985943306
sg11
F2.9960195460402828
sg12
F-0.08523703713119873
sg13
F4.3119209274960655
sg14
F-0.23908943691262743
sg15
F-0.7373276497775381
sg16
F-0.32537032903650676
sg17
F0.3854164710833779
sg18
F0.5323911224283095
sg19
F4.885267403776433
sg20
F-0.4508187169438724
sg21
F1.6607080344058354
sg22
F1.2593843427126794
sg23
F0.3988012692496579
sg24
F-0.02196229972169234
sg25
F-1.296817633378022
sg26
F-0.005999645371644262
sg27
F0.15813861240935645
ssS'FOWLER PEGGY'
p228
(dp229
g3
F-0.7595479816785395
sg4
F-0.32080504209563454
sg5
F-0.7779010413101575
sg6
I00
sg7
F-0.45938601591090805
sg8
F-1.1093813481076455
sg9
F0.3074450362375499
sg10
F0.19612391985943306
sg11
F-1.2807731683220958
sg12
F-0.08523703713119873
sg13
F-0.40492179227893405
sg14
F-0.24038752236735278
sg15
F-1.0852165699843621
sg16
F-0.32537032903650676
sg17
F-0.5636116767277342
sg18
F-0.15409518953180984
sg19
F-0.5291032715478554
sg20
F-0.7767219540731074
sg21
F-0.1442635963489086
sg22
F-0.9628303028654596
sg23
F-0.5769897398469608
sg24
F-0.22184709918641785
sg25
F-2.468065813618581
sg26
F-0.14815028512224987
sg27
F-0.5985927755639423
ssS'WASAFF GEORGE'
p230
(dp231
g3
F-0.8201005264868798
sg4
F1.2118248306347947
sg5
F-0.7779010413101575
sg6
I00
sg7
F-0.15655453244007406
sg8
F-0.6884074784535691
sg9
F-0.7729268085098882
sg10
F0.19612391985943306
sg11
F-0.8954022072869626
sg12
F-0.08523703713119873
sg13
F-0.4091313797129144
sg14
F-0.23888486455014432
sg15
F0.6578808647119295
sg16
F-0.32537032903650676
sg17
F-0.25517752868912275
sg18
F-0.12648726964647153
sg19
F-0.4311689182474161
sg20
F0.5513968967706047
sg21
F-0.2311926575314252
sg22
F0.4660903501321163
sg23
F-0.04122218186908395
sg24
F-0.10353108534377968
sg25
F1.1567265744553097
sg26
F-0.07810481195384458
sg27
F-0.21611782139594354
ssS'WHITE JR THOMAS E'
p232
(dp233
g3
F0.011648768962155498
sg4
F-0.32080504209563454
sg5
F0.9836263690071565
sg6
I00
sg7
F-0.45938601591090805
sg8
F0.01002644165433063
sg9
F0.3074450362375499
sg10
F0.19612391985943306
sg11
F-0.04507849739165334
sg12
F-0.08523703713119873
sg13
F0.03902402694493509
sg14
F0.9042296441172231
sg15
F-0.16149002258964681
sg16
F-0.32537032903650676
sg17
F-0.13654901021273372
sg18
F1.978161887511145
sg19
F-0.021554599284467433
sg20
F-0.4679569880521873
sg21
F6.570840737541924
sg22
F0.7823648190395284
sg23
F-0.18029640882136336
sg24
F-0.0005915379930326039
sg25
F-0.23087269064614907
sg26
F-0.15376094215652292
sg27
F-0.1649857831954868
ssS'ALLEN PHILLIP K'
p234
(dp235
g3
F0.47479235479916676
sg4
F4.969967592639099
sg5
F-0.4776187883350919
sg6
I00
sg7
F0.0021367356857297493
sg8
F-0.2100280811193912
sg9
F-5.398953753662279
sg10
F-0.26058244367317046
sg11
F0.3655975734702005
sg12
F-0.08523703713119873
sg13
F1.1098280860483338
sg14
F-0.24022723886685055
sg15
F-0.5719305639025019
sg16
F-0.32537032903650676
sg17
F3.3985808403836586
sg18
F-0.17905422599895898
sg19
F0.3802871519562241
sg20
F-0.6081679834160791
sg21
F-0.3636763008305822
sg22
F0.14710089021491646
sg23
F1.0105606996411427
sg24
F0.29109167347635406
sg25
F-0.41824555342704084
sg26
F-0.06561519468778747
sg27
F5.726809881427475
ssS'SHARP VICTORIA T'
p236
(dp237
g3
F0.5958974444158474
sg4
F0.024823413623548177
sg5
F1.7411310083264306
sg6
I00
sg7
F0.17982765108449367
sg8
F-0.6501371266668349
sg9
F0.3074450362375499
sg10
F0.19612391985943306
sg11
F1.6265973542273637
sg12
F-0.08523703713119873
sg13
F-0.3347620017125946
sg14
F-0.2378556757574458
sg15
F-0.8426705447483289
sg16
F-0.32537032903650676
sg17
F0.005805211958933095
sg18
F-0.37772128641954833
sg19
F-0.4451595401474788
sg20
F-0.5256070453001366
sg21
F-0.31968894148753874
sg22
F0.40096354149651703
sg23
F0.07199384065398393
sg24
F-0.041522854290540215
sg25
F0.924923853308569
sg26
F-0.3608259605390502
sg27
F0.1412343970288402
ssS'JAEDICKE ROBERT'
p238
(dp239
g3
F0.011648768962155498
sg4
F-0.32080504209563454
sg5
F-0.7779010413101575
sg6
I00
sg7
F-0.45938601591090805
sg8
F0.01002644165433063
sg9
F0.26114272428677465
sg10
F0.0363363054018717
sg11
F-0.04507849739165334
sg12
F-0.08523703713119873
sg13
F0.03902402694493509
sg14
F-0.24038752236735278
sg15
F-0.16149002258964681
sg16
F3.2167841528759875
sg17
F-0.5636116767277342
sg18
F-0.38775365898676223
sg19
F-0.021554599284467433
sg20
F-0.4679569880521873
sg21
F-0.4050851466002974
sg22
F-0.9628303028654596
sg23
F-0.5769897398469608
sg24
F-0.2122676192398588
sg25
F-0.23087269064614907
sg26
F-0.3301166369183898
sg27
F-0.5985927755639423
ssS'WINOKUR JR. HERBERT S'
p240
(dp241
g3
F0.011648768962155498
sg4
F-0.32080504209563454
sg5
F-0.7473055103429115
sg6
I00
sg7
F-0.45938601591090805
sg8
F0.01002644165433063
sg9
F0.26114272428677465
sg10
F0.19612391985943306
sg11
F-0.04507849739165334
sg12
F-0.08523703713119873
sg13
F0.03902402694493509
sg14
F-0.24038752236735278
sg15
F-0.16149002258964681
sg16
F3.211214420311325
sg17
F-0.5636116767277342
sg18
F-0.4571839294944819
sg19
F-0.021554599284467433
sg20
F-0.4679569880521873
sg21
F-0.42736942707633974
sg22
F-0.9628303028654596
sg23
F-0.5769897398469608
sg24
F-0.21212555698202445
sg25
F-0.23087269064614907
sg26
F-0.4181111581341037
sg27
F-0.5985927755639423
ssS'BROWN MICHAEL'
p242
(dp243
g3
F-0.258048700317157
sg4
F-0.32080504209563454
sg5
F0.2893265102210678
sg6
I00
sg7
F-0.45938601591090805
sg8
F-0.8606240614938732
sg9
F0.3074450362375499
sg10
F0.19612391985943306
sg11
F-0.3957163128560868
sg12
F-0.08523703713119873
sg13
F-0.40141380275061705
sg14
F-0.24038752236735278
sg15
F-0.8079589332407944
sg16
F-0.32537032903650676
sg17
F-0.5636116767277342
sg18
F-0.4571839294944819
sg19
F-0.5151126496477927
sg20
F-0.6378941996295138
sg21
F-0.42736942707633974
sg22
F-0.9628303028654596
sg23
F-0.5769897398469608
sg24
F-0.21620944655828647
sg25
F-0.2981394489696703
sg26
F-0.4181111581341037
sg27
F-0.5985927755639423
ssS'BADUM JAMES P'
p244
(dp245
g3
F0.011648768962155498
sg4
F0.009172612901294674
sg5
F-0.7024190731913892
sg6
I00
sg7
F-0.45938601591090805
sg8
F0.01002644165433063
sg9
F0.3074450362375499
sg10
F0.19612391985943306
sg11
F-0.04507849739165334
sg12
F-0.08523703713119873
sg13
F0.03902402694493509
sg14
F-0.24038752236735278
sg15
F-0.16149002258964681
sg16
F-0.32537032903650676
sg17
F-0.5636116767277342
sg18
F-0.4157240474991402
sg19
F-0.021554599284467433
sg20
F-0.4679569880521873
sg21
F-0.42736942707633974
sg22
F-0.9628303028654596
sg23
F-0.5769897398469608
sg24
F-0.2009763005245809
sg25
F-0.23087269064614907
sg26
F-0.3655657418601681
sg27
F-0.5985927755639423
ssS'HUGHES JAMES A'
p246
(dp247
g3
F-0.655004271838499
sg4
F-0.32080504209563454
sg5
F-0.7779010413101575
sg6
I00
sg7
F-0.45938601591090805
sg8
F-0.4396501918397966
sg9
F0.3074450362375499
sg10
F0.19612391985943306
sg11
F-0.5984190813516308
sg12
F-0.08523703713119873
sg13
F-0.4063249880902608
sg14
F-0.24038752236735278
sg15
F0.4575425705990291
sg16
F-0.32537032903650676
sg17
F-0.5636116767277342
sg18
F-0.27733355785763036
sg19
F-0.4591501620475416
sg20
F0.060327741836795186
sg21
F-0.24369556762365777
sg22
F-0.9628303028654596
sg23
F-0.5769897398469608
sg24
F-0.22184709918641785
sg25
F1.0540951252587019
sg26
F-0.264242318055024
sg27
F-0.5985927755639423
ssS'REYNOLDS LAWRENCE'
p248
(dp249
g3
F0.011648768962155498
sg4
F-0.22610562177539054
sg5
F-0.5958219047895831
sg6
I00
sg7
F-0.22279891944931898
sg8
F0.01002644165433063
sg9
F-0.06297345936865183
sg10
F-0.3121755824260859
sg11
F-0.04507849739165334
sg12
F-0.08523703713119873
sg13
F0.03902402694493509
sg14
F-0.02732435234447634
sg15
F-0.16149002258964681
sg16
F-0.32537032903650676
sg17
F-0.4687088619466229
sg18
F0.2217437698317652
sg19
F-0.021554599284467433
sg20
F-0.4679569880521873
sg21
F-0.3255413889942307
sg22
F-0.5429465009286536
sg23
F-0.14471487938722533
sg24
F-0.17672631886499837
sg25
F-0.23087269064614907
sg26
F0.4298711014504401
sg27
F-0.19809636075439285
ssS'DIMICHELE RICHARD G'
p250
(dp251
g3
F0.011648768962155498
sg4
F-0.32080504209563454
sg5
F-0.0024678105960639933
sg6
I00
sg7
F0.5927444354266452
sg8
F0.01002644165433063
sg9
F0.3074450362375499
sg10
F0.19612391985943306
sg11
F-0.04507849739165334
sg12
F-0.08523703713119873
sg13
F0.03902402694493509
sg14
F0.15472079684107648
sg15
F-0.16149002258964681
sg16
F-0.32537032903650676
sg17
F0.3854164710833779
sg18
F0.8804092477706987
sg19
F-0.021554599284467433
sg20
F-0.4679569880521873
sg21
F-0.3636763008305822
sg22
F0.48143499567731407
sg23
F0.14307256014934072
sg24
F0.0490263935290897
sg25
F-0.23087269064614907
sg26
F1.2514419608964242
sg27
F0.5657497969673289
ssS'BHATNAGAR SANJAY'
p252
(dp253
g3
F-0.7564427229704195
sg4
F-0.32080504209563454
sg5
F2.207252731703575
sg6
I00
sg7
F-0.45938601591090805
sg8
F-1.1093813481076455
sg9
F0.3074450362375499
sg10
F-9.24222783616928
sg11
F-0.7469106443192968
sg12
F-0.08523703713119873
sg13
F-0.4098329776185778
sg14
F-0.24038752236735278
sg15
F-1.0852165699843621
sg16
F-0.32537032903650676
sg17
F-0.5636116767277342
sg18
F2.0283618626207764
sg19
F-0.5151126496477927
sg20
F-0.580448232273544
sg21
F0.888920815298809
sg22
F-0.9628303028654596
sg23
F-0.5769897398469608
sg24
F-0.2060779598031054
sg25
F1.3450971009199184
sg26
F2.732019330160573
sg27
F-0.5985927755639423
ssS'CARTER REBECCA C'
p254
(dp255
g3
F-0.86564432087264
sg4
F-0.32080504209563454
sg5
F-0.7779010413101575
sg6
I00
sg7
F-0.3458242096093453
sg8
F-0.5544612471999992
sg9
F0.011495474988018962
sg10
F-0.9174971472129609
sg11
F-1.061571337274589
sg12
F-0.08523703713119873
sg13
F-0.4196553482978653
sg14
F-0.23981809414188432
sg15
F1.8605774630105363
sg16
F-0.32537032903650676
sg17
F-0.2789032323844005
sg18
F-0.4571839294944819
sg19
F-0.4311689182474161
sg20
F1.8795157476143165
sg21
F-0.27206174389378746
sg22
F0.4760544770567021
sg23
F0.4942224437029869
sg24
F-0.16722324599431157
sg25
F0.21307449358986053
sg26
F-0.4181111581341037
sg27
F-0.24798383245998365
ssS'BUCHANAN HAROLD G'
p256
(dp257
g3
F-0.464030861289118
sg4
F-0.32080504209563454
sg5
F-0.7649093084153609
sg6
I00
sg7
F0.0021367356857297493
sg8
F-1.1093813481076455
sg9
F0.3074450362375499
sg10
F0.19612391985943306
sg11
F-1.2654526102381303
sg12
F-0.08523703713119873
sg13
F-0.3424795786748919
sg14
F-0.23910630886004874
sg15
F-1.0852165699843621
sg16
F-0.32537032903650676
sg17
F-0.08909760282217812
sg18
F-0.2940400810140322
sg19
F-0.5291032715478554
sg20
F-0.7767219540731074
sg21
F-0.33182948501135173
sg22
F0.40025456611137
sg23
F0.23144778690325818
sg24
F-0.10121576793389014
sg25
F-2.460151161313834
sg26
F-0.24987419354624485
sg27
F0.018250537495944102
ssS'YEAP SOON'
p258
(dp259
g3
F0.011648768962155498
sg4
F-0.32080504209563454
sg5
F0.41510813753085696
sg6
I00
sg7
F-0.45938601591090805
sg8
F0.01002644165433063
sg9
F0.3074450362375499
sg10
F0.19612391985943306
sg11
F-0.04507849739165334
sg12
F-0.08523703713119873
sg13
F0.03902402694493509
sg14
F-0.24038752236735278
sg15
F-0.16149002258964681
sg16
F-0.32537032903650676
sg17
F-0.5636116767277342
sg18
F-0.4261862686200707
sg19
F-0.021554599284467433
sg20
F-0.4679569880521873
sg21
F-0.42736942707633974
sg22
F-0.9628303028654596
sg23
F-0.5769897398469608
sg24
F-0.21554500239100813
sg25
F-0.23087269064614907
sg26
F-0.3788253494010439
sg27
F-0.5985927755639423
ssS'MURRAY JULIA H'
p260
(dp261
g3
F0.10733674100496488
sg4
F-0.32080504209563454
sg5
F0.4688722588271569
sg6
I00
sg7
F-0.2701163387416368
sg8
F-0.8988944132806074
sg9
F0.3074450362375499
sg10
F0.19612391985943306
sg11
F-0.8270489481431165
sg12
F-0.08523703713119873
sg13
F-0.3986074111279635
sg14
F-0.24003953845178871
sg15
F-0.9261748332419997
sg16
F-0.32537032903650676
sg17
F-0.1840004176032893
sg18
F-0.36110546082554684
sg19
F-0.5011220277477298
sg20
F-0.5237469348647812
sg21
F-0.32781565616004366
sg22
F0.29729924913494116
sg23
F0.26281762430423533
sg24
F-0.12894684681966465
sg25
F-1.7597225179816456
sg26
F-0.33649015091365975
sg27
F-0.06480017607972587
ssS'GARLAND C KEVIN'
p262
(dp263
g3
F-0.9189512620287003
sg4
F-0.32080504209563454
sg5
F0.2702070099775588
sg6
I00
sg7
F0.10888331945178138
sg8
F-0.9180295891739745
sg9
F0.3074450362375499
sg10
F0.19612391985943306
sg11
F-1.082784417698541
sg12
F-0.08523703713119873
sg13
F-0.39930900903362687
sg14
F-0.17625935921246588
sg15
F0.43117963244825347
sg16
F-0.32537032903650676
sg17
F0.2430622489117111
sg18
F-0.3130724177253921
sg19
F-0.15135648024616086
sg20
F2.716058140678213
sg21
F-0.29601432568412944
sg22
F0.3119294233617737
sg23
F0.34829752560722954
sg24
F-0.042671476829326434
sg25
F1.1971273042455133
sg26
F-0.2884385185384741
sg27
F0.5226982471646046
ssS'DODSON KEITH'
p264
(dp265
g3
F-0.9360301849233604
sg4
F-0.32080504209563454
sg5
F-0.16806909922840474
sg6
I00
sg7
F-0.45938601591090805
sg8
F-0.9180295891739745
sg9
F0.3074450362375499
sg10
F0.19612391985943306
sg11
F-1.1582087036503714
sg12
F-0.08523703713119873
sg13
F-0.4203569462035287
sg14
F-0.23957134191084797
sg15
F0.7155039204043688
sg16
F-0.32537032903650676
sg17
F-0.4971797063809563
sg18
F-0.4571839294944819
sg19
F-0.4871314058476671
sg20
F0.4429790313956077
sg21
F-0.42736942707633974
sg22
F0.2517874261550764
sg23
F-0.20390489637301432
sg24
F-0.18525165568096055
sg25
F0.2990406772272916
sg26
F-0.4181111581341037
sg27
F-0.5016788516962829
ssS'YEAGER F SCOTT'
p266
(dp267
g3
F0.2238578772906113
sg4
F-0.32080504209563454
sg5
F0.39020731614916343
sg6
I01
sg7
F-0.45938601591090805
sg8
F0.7617654946080389
sg9
F0.3074450362375499
sg10
F0.19612391985943306
sg11
F0.8087152534372036
sg12
F-0.08523703713119873
sg13
F-0.21944937450320393
sg14
F-0.08437473355613305
sg15
F0.19691344726215784
sg16
F-0.32537032903650676
sg17
F-0.5636116767277342
sg18
F1.4540192270979575
sg19
F0.40427107521347444
sg20
F0.4875515366909765
sg21
F1.3800189915866081
sg22
F-0.09225799330387009
sg23
F-0.5769897398469608
sg24
F-0.180635318592445
sg25
F0.6950074527460511
sg26
F1.2752462367376096
sg27
F-0.5985927755639423
ssS'HIRKO JOSEPH'
p268
(dp269
g3
F0.2238578772906113
sg4
F-0.3018909692237299
sg5
F0.9105478714739256
sg6
I01
sg7
F-0.45938601591090805
sg8
F0.7617654946080389
sg9
F0.3074450362375499
sg10
F0.19612391985943306
sg11
F0.8087152534372036
sg12
F-0.08523703713119873
sg13
F-0.21944937450320393
sg14
F-0.23737587975265292
sg15
F0.19691344726215784
sg16
F-0.32537032903650676
sg17
F-0.5636116767277342
sg18
F4.490346229110767
sg19
F0.40427107521347444
sg20
F0.4875515366909765
sg21
F-0.42736942707633974
sg22
F-0.9628303028654596
sg23
F-0.5769897398469608
sg24
F-0.21142771331451451
sg25
F0.6950074527460511
sg26
F5.852288543943515
sg27
F-0.5985927755639423
ssS'DIETRICH JANET R'
p270
(dp271
g3
F0.3040031258525659
sg4
F-0.32080504209563454
sg5
F-0.7026572549611271
sg6
I00
sg7
F0.38311539762362984
sg8
F4.726847299369324
sg9
F0.3074450362375499
sg10
F0.19612391985943306
sg11
F0.9489572851288881
sg12
F-0.08523703713119873
sg13
F-0.3859786488260224
sg14
F-0.23988874542171096
sg15
F2.6730523228642804
sg16
F-0.32537032903650676
sg17
F0.005805211958933095
sg18
F-0.15725690012463503
sg19
F-0.33323456494697673
sg20
F0.48815314196852305
sg21
F-0.2681363587655943
sg22
F0.41170259500486817
sg23
F0.14839549045960845
sg24
F-0.06051561735545114
sg25
F0.7031741298755129
sg26
F-0.10220338794241952
sg27
F0.13545421991869916
ssS'DERRICK JR. JAMES V'
p272
(dp273
g3
F0.10164376670674485
sg4
F-0.32080504209563454
sg5
F0.32908121287914543
sg6
I00
sg7
F0.27346617408851026
sg8
F0.11526990906784976
sg9
F-2.070641705554265
sg10
F-6.281121591427076
sg11
F0.3585265466622164
sg12
F-0.08523703713119873
sg13
F0.20757317936520908
sg14
F-0.2324977779544731
sg15
F-0.15521585454471676
sg16
F-0.32537032903650676
sg17
F0.19561084152115552
sg18
F0.963087312406262
sg19
F-0.24929083354660017
sg20
F-0.6514867960491836
sg21
F0.47595938333049365
sg22
F1.7432298154428276
sg23
F1.8989087115312775
sg24
F-0.15882487303196946
sg25
F0.2754317006825483
sg26
F1.3819119011683616
sg27
F-0.10145095325314636
ssS'PAI LOU L'
p274
(dp275
g3
F0.011648768962155498
sg4
F-0.32080504209563454
sg5
F-0.0839909345109127
sg6
I00
sg7
F-0.45938601591090805
sg8
F0.01002644165433063
sg9
F0.3074450362375499
sg10
F0.19612391985943306
sg11
F-0.04507849739165334
sg12
F-0.08523703713119873
sg13
F0.03902402694493509
sg14
F1.6887688722268182
sg15
F-0.16149002258964681
sg16
F-0.32537032903650676
sg17
F0.3854164710833779
sg18
F3.3730079010415506
sg19
F-0.021554599284467433
sg20
F-0.4679569880521873
sg21
F3.845100710360189
sg22
F0.4764391923819757
sg23
F-0.031038040744243815
sg24
F0.13541122694998142
sg25
F-0.23087269064614907
sg26
F2.7132438367547707
sg27
F0.5697913100265315
ssS'BAY FRANKLIN R'
p276
(dp277
g3
F0.011648768962155498
sg4
F0.15938453289724286
sg5
F2.0183962411895484
sg6
I00
sg7
F-0.45938601591090805
sg8
F0.01002644165433063
sg9
F-0.06601274312510072
sg10
F-0.1038678770250122
sg11
F-0.04507849739165334
sg12
F-0.08523703713119873
sg13
F0.03902402694493509
sg14
F-0.24031476209409847
sg15
F-0.16149002258964681
sg16
F-0.32537032903650676
sg17
F-0.1840004176032893
sg18
F-0.4470505674428931
sg19
F-0.021554599284467433
sg20
F-0.4679569880521873
sg21
F-0.35368519247481417
sg22
F0.3543855074723226
sg23
F0.2470887893707913
sg24
F-0.12717369937928782
sg25
F-0.23087269064614907
sg26
F-0.4181111581341037
sg27
F-0.0879339875581382
ssS'HAYSLETT RODERICK J'
p278
(dp279
g3
F0.3438539459401061
sg4
F-0.32080504209563454
sg5
F-0.7779010413101575
sg6
I00
sg7
F-0.45938601591090805
sg8
F-0.4396501918397966
sg9
F0.3074450362375499
sg10
F0.19612391985943306
sg11
F-0.6196321617755831
sg12
F-0.08523703713119873
sg13
F0.314216061026045
sg14
F-0.24038752236735278
sg15
F-0.6664759802978923
sg16
F-0.32537032903650676
sg17
F-0.5636116767277342
sg18
F-0.4014366084405905
sg19
F0.002540360654529536
sg20
F-0.572863668094673
sg21
F-0.2521684762980698
sg22
F-0.9628303028654596
sg23
F-0.5769897398469608
sg24
F-0.22184709918641785
sg25
F-1.604047864501025
sg26
F-0.4181111581341037
sg27
F-0.5985927755639423
ssS'FUGH JOHN L'
p280
(dp281
g3
F0.011648768962155498
sg4
F-0.22753261196964478
sg5
F-0.7779010413101575
sg6
I00
sg7
F-0.45938601591090805
sg8
F0.01002644165433063
sg9
F0.3074450362375499
sg10
F0.19612391985943306
sg11
F-0.04507849739165334
sg12
F-0.08523703713119873
sg13
F0.03902402694493509
sg14
F-0.24038752236735278
sg15
F-0.16149002258964681
sg16
F-0.32537032903650676
sg17
F-0.5636116767277342
sg18
F-0.4288203574004215
sg19
F-0.021554599284467433
sg20
F-0.4679569880521873
sg21
F-0.42736942707633974
sg22
F-0.9628303028654596
sg23
F-0.5769897398469608
sg24
F-0.21606040700759552
sg25
F-0.23087269064614907
sg26
F-0.3821637402696331
sg27
F-0.5985927755639423
ssS'FALLON JAMES B'
p282
(dp283
g3
F-0.11882960156977626
sg4
F-0.32080504209563454
sg5
F1.2991306023572922
sg6
I00
sg7
F0.10743427080337345
sg8
F-0.3057039605862268
sg9
F0.3074450362375499
sg10
F0.19612391985943306
sg11
F0.5977629536656782
sg12
F-0.08523703713119873
sg13
F-0.37755947395806166
sg14
F0.18297287279802274
sg15
F-0.32675925574199743
sg16
F-0.32537032903650676
sg17
F1.808958692800046
sg18
F-0.08210785884726732
sg19
F-0.011450261245533225
sg20
F2.0313007591393126
sg21
F0.2762089819790317
sg22
F0.7111650041978247
sg23
F0.5825985026704217
sg24
F0.19865947164024353
sg25
F1.471402724530859
sg26
F-0.2264783508735976
sg27
F1.9127935557290474
ssS'KOENIG MARK E'
p284
(dp285
g3
F0.20152958848460537
sg4
F-0.32080504209563454
sg5
F1.9723838538538103
sg6
I01
sg7
F-0.005138790704657038
sg8
F-0.0952170257591885
sg9
F0.3074450362375499
sg10
F0.19612391985943306
sg11
F1.3838254338199099
sg12
F-0.08523703713119873
sg13
F-0.3873818446373492
sg14
F-0.0817300557978462
sg15
F-0.3776714674424041
sg16
F-0.32537032903650676
sg17
F0.1007080267400443
sg18
F-0.148417425638779
sg19
F-0.319243943046914
sg20
F0.6229349144975493
sg21
F0.2035213817888358
sg22
F0.7406122143809083
sg23
F0.17495406022811627
sg24
F-0.040274948305860106
sg25
F1.6592269952673384
sg26
F-0.28120513451423107
sg27
F0.0924394660692564
ssS'SAVAGE FRANK'
p286
(dp287
g3
F0.011648768962155498
sg4
F-0.32080504209563454
sg5
F-0.7779010413101575
sg6
I00
sg7
F-0.45938601591090805
sg8
F0.01002644165433063
sg9
F0.08281585213203704
sg10
F0.19612391985943306
sg11
F-0.04507849739165334
sg12
F-0.08523703713119873
sg13
F0.03902402694493509
sg14
F-0.24038752236735278
sg15
F-0.16149002258964681
sg16
F3.7471790364020845
sg17
F-0.5636116767277342
sg18
F-0.4571839294944819
sg19
F-0.021554599284467433
sg20
F-0.4679569880521873
sg21
F-0.42736942707633974
sg22
F-0.9628303028654596
sg23
F-0.5769897398469608
sg24
F-0.2214181672485122
sg25
F-0.23087269064614907
sg26
F-0.4181111581341037
sg27
F-0.5985927755639423
ssS'IZZO LAWRENCE L'
p288
(dp289
g3
F-0.7704163871569596
sg4
F-0.32080504209563454
sg5
F-0.16960645428762233
sg6
I00
sg7
F0.013788177012270088
sg8
F-0.5735964230933663
sg9
F0.3074450362375499
sg10
F0.19612391985943306
sg11
F-0.7775517604872278
sg12
F-0.08523703713119873
sg13
F-0.4168489566752117
sg14
F1.3980146023157671
sg15
F0.7038863688534738
sg16
F-0.32537032903650676
sg17
F-0.5636116767277342
sg18
F0.478734508836771
sg19
F-0.4591501620475416
sg20
F0.7211564491340866
sg21
F1.4197438688682147
sg22
F-0.49417009361718156
sg23
F-0.5769897398469608
sg24
F0.00458275376031058
sg25
F1.3264752268294926
sg26
F0.02317030912627777
sg27
F-0.5985927755639423
ssS'TILNEY ELIZABETH A'
p290
(dp291
g3
F-0.7890479394056796
sg4
F-0.32080504209563454
sg5
F-0.7779010413101575
sg6
I00
sg7
F-0.04299272613851129
sg8
F-0.9180295891739745
sg9
F-0.75750813863028
sg10
F0.19612391985943306
sg11
F-0.845905019631074
sg12
F-0.08523703713119873
sg13
F-0.4168489566752117
sg14
F-0.08004602454585892
sg15
F-0.3962452519225868
sg16
F-0.32537032903650676
sg17
F-0.2789032323844005
sg18
F-0.26934959938590536
sg19
F-0.375206430647165
sg20
F2.5186105329827195
sg21
F-0.13586295883109906
sg22
F0.39652282745621625
sg23
F0.7038661508160264
sg24
F-0.1761637889261664
sg25
F1.0748785113085437
sg26
F-0.29760910678774394
sg27
F-0.22747076121473467
ssS'MARTIN AMANDA K'
p292
(dp293
g3
F-0.23941714806843686
sg4
F-0.16330146031896864
sg5
F-0.600109176644866
sg6
I00
sg7
F7.331611040695429
sg8
F-0.9562999409607087
sg9
F0.3074450362375499
sg10
F0.19612391985943306
sg11
F-0.7304115817673339
sg12
F-0.08523703713119873
sg13
F-0.2688117985802356
sg14
F2.731662958715023
sg15
F-0.9186321777066134
sg16
F-0.32537032903650676
sg17
F-0.5636116767277342
sg18
F-0.12425536987953084
sg19
F-0.5291032715478554
sg20
F-0.7767219540731074
sg21
F-0.42736942707633974
sg22
F0.9579269097615185
sg23
F-0.5769897398469608
sg24
F0.73976294478255
sg25
F-1.1731616200814212
sg26
F0.0038357677258147346
sg27
F-0.5985927755639423
ssS'BUY RICHARD B'
p294
(dp295
g3
F0.7961866310895883
sg4
F0.8768047748868509
sg5
F-0.7779010413101575
sg6
I00
sg7
F0.706306241728208
sg8
F1.8757060912576244
sg9
F-0.9795036472320328
sg10
F0.19612391985943306
sg11
F1.4568927108357455
sg12
F-0.08523703713119873
sg13
F0.3086032777807379
sg14
F0.18201433528515082
sg15
F0.31814936200862665
sg16
F-0.32537032903650676
sg17
F0.2905136563022667
sg18
F0.09672570306075895
sg19
F0.4642308833566007
sg20
F-0.3929350659579118
sg21
F0.02832144179597292
sg22
F0.8538284386757053
sg23
F0.07449106299596558
sg24
F0.047602453877093116
sg25
F0.36285838881229676
sg26
F0.10013693098249876
sg27
F0.23450679410355607
ssS'GRAMM WENDY L'
p296
(dp297
g3
F0.011648768962155498
sg4
F-0.32080504209563454
sg5
F-0.7779010413101575
sg6
I00
sg7
F-0.45938601591090805
sg8
F0.01002644165433063
sg9
F0.3074450362375499
sg10
F0.19612391985943306
sg11
F-0.04507849739165334
sg12
F-0.08523703713119873
sg13
F0.03902402694493509
sg14
F-0.24038752236735278
sg15
F-0.16149002258964681
sg16
F3.5601532797571047
sg17
F-0.5636116767277342
sg18
F-0.4571839294944819
sg19
F-0.021554599284467433
sg20
F-0.4679569880521873
sg21
F-0.42736942707633974
sg22
F-0.9628303028654596
sg23
F-0.5769897398469608
sg24
F-0.2082022595233143
sg25
F-0.23087269064614907
sg26
F-0.4181111581341037
sg27
F-0.5985927755639423
ssS'CAUSEY RICHARD A'
p298
(dp299
g3
F-0.047926194401035904
sg4
F-0.32080504209563454
sg5
F-0.11372034995183894
sg6
I01
sg7
F0.07056908016305147
sg8
F0.000458853707647073
sg9
F-0.12779669609973712
sg10
F0.19612391985943306
sg11
F0.5753713687737285
sg12
F-0.08523703713119873
sg13
F-0.3958010195053099
sg14
F0.0842867433374833
sg15
F-0.11366504958858166
sg16
F-0.32537032903650676
sg17
F0.3854164710833779
sg18
F-0.054823973692845196
sg19
F-0.3612158087471023
sg20
F0.6172220293197099
sg21
F0.8371549568559816
sg22
F1.319020714063303
sg23
F0.3354966579629972
sg24
F-0.008095101741978515
sg25
F1.1357563160253499
sg26
F-0.4181111581341037
sg27
F0.1383613729090367
ssS'TAYLOR MITCHELL S'
p300
(dp301
g3
F-0.7512672917902194
sg4
F0.09853280376086648
sg5
F-0.7779010413101575
sg6
I00
sg7
F-0.45938601591090805
sg8
F-1.1093813481076455
sg9
F0.3074450362375499
sg10
F0.19612391985943306
sg11
F-0.9390068726028646
sg12
F-0.08523703713119873
sg13
F-0.4098329776185778
sg14
F-0.24038752236735278
sg15
F-1.0852165699843621
sg16
F-0.32537032903650676
sg17
F0.005805211958933095
sg18
F0.1450620362366
sg19
F-0.5291032715478554
sg20
F-0.7767219540731074
sg21
F-0.14243003162055984
sg22
F0.4947681296646528
sg23
F0.3593737624214649
sg24
F-0.09686628370167695
sg25
F-0.07471037161939185
sg26
F0.23025611602337134
sg27
F0.09362239245210738
ssS'DONAHUE JR JEFFREY M'
p302
(dp303
g3
F-0.5794429766075786
sg4
F-0.32080504209563454
sg5
F1.3065791958836421
sg6
I00
sg7
F-0.45938601591090805
sg8
F2.488031719845372
sg9
F-0.2481827071717527
sg10
F0.19612391985943306
sg11
F-0.38275276370811595
sg12
F-0.08523703713119873
sg13
F-0.41474416295822153
sg14
F-0.23944796579532981
sg15
F5.802903613366196
sg16
F-0.32537032903650676
sg17
F0.19561084152115552
sg18
F-0.2833488646291689
sg19
F-0.375206430647165
sg20
F2.0692470120205613
sg21
F-0.2681363587655943
sg22
F0.5683421876566164
sg23
F0.9807121472440608
sg24
F-0.12167605013568887
sg25
F1.3768390160524175
sg26
F-0.26200979463777574
sg27
F0.280012128080618
ssS'GLISAN JR BEN F'
p304
(dp305
g3
F-0.5753026316634186
sg4
F-0.32080504209563454
sg5
F1.9498865030576542
sg6
I01
sg7
F-0.35184601365816287
sg8
F-0.11435220165255562
sg9
F0.3074450362375499
sg10
F0.19612391985943306
sg11
F-0.2625453079723864
sg12
F-0.08523703713119873
sg13
F-0.4189537503922019
sg14
F-0.029163394613396697
sg15
F0.8025490575113613
sg16
F-0.32537032903650676
sg17
F0.005805211958933095
sg18
F-0.3319849500325175
sg19
F-0.4451595401474788
sg20
F1.357754770497144
sg21
F-0.22833668336386767
sg22
F0.5484139338074447
sg23
F0.22717800373790303
sg24
F-0.07632090140339776
sg25
F1.855325340263584
sg26
F-0.3397001421334571
sg27
F0.06905029587967487
ss.