ccopy_reg
_reconstructor
p0
(csklearn.pipeline
Pipeline
p1
c__builtin__
object
p2
Ntp3
Rp4
(dp5
S'_sklearn_version'
p6
S'0.18.1'
p7
sS'steps'
p8
(lp9
(S'select_features'
p10
g0
(csklearn.feature_selection.univariate_selection
SelectKBest
p11
g2
Ntp12
Rp13
(dp14
S'k'
p15
I19
sg6
g7
sS'score_func'
p16
csklearn.feature_selection.univariate_selection
f_classif
p17
sbtp18
a(S'classify'
p19
g0
(csklearn.tree.tree
DecisionTreeClassifier
p20
g2
Ntp21
Rp22
(dp23
S'presort'
p24
I00
sS'splitter'
p25
S'best'
p26
sS'tree_'
p27
NsS'n_features_'
p28
NsS'n_outputs_'
p29
NsS'n_classes_'
p30
NsS'min_impurity_split'
p31
F1e-07
sS'classes_'
p32
NsS'max_features_'
p33
NsS'min_samples_leaf'
p34
I1
sS'min_samples_split'
p35
I20
sS'random_state'
p36
NsS'criterion'
p37
S'entropy'
p38
sS'min_weight_fraction_leaf'
p39
F0.0
sS'max_leaf_nodes'
p40
NsS'max_features'
p41
Nsg6
g7
sS'max_depth'
p42
NsS'class_weight'
p43
Nsbtp44
asb.