(lp0
S'poi'
p1
aS'salary'
p2
aS'bonus'
p3
aS'long_term_incentive'
p4
aS'deferred_income'
p5
aS'deferral_payments'
p6
aS'loan_advances'
p7
aS'other'
p8
aS'expenses'
p9
aS'director_fees'
p10
aS'total_payments'
p11
aS'exercised_stock_options'
p12
aS'restricted_stock'
p13
aS'restricted_stock_deferred'
p14
aS'total_stock_value'
p15
aS'to_messages'
p16
aS'from_messages'
p17
aS'from_poi_to_this_person'
p18
aS'from_this_person_to_poi'
p19
aS'shared_receipt_with_poi'
p20
aS'to_poi_ratio'
p21
aS'from_poi_ratio'
p22
aS'shared_poi_ratio'
p23
aS'bonus_to_salary'
p24
aS'bonus_to_total'
p25
a.